Archive member included because of file (symbol)

c:/program files (x86)/gnu tools arm embedded/4.8 2014q2/bin/../lib/gcc/arm-none-eabi/4.8.4/armv7e-m/fpu\libgcc.a(_aeabi_uldivmod.o)
                              ..\obj\bsp.o (__aeabi_uldivmod)
c:/program files (x86)/gnu tools arm embedded/4.8 2014q2/bin/../lib/gcc/arm-none-eabi/4.8.4/armv7e-m/fpu\libgcc.a(bpabi.o)
                              c:/program files (x86)/gnu tools arm embedded/4.8 2014q2/bin/../lib/gcc/arm-none-eabi/4.8.4/armv7e-m/fpu\libgcc.a(_aeabi_uldivmod.o) (__gnu_uldivmod_helper)
c:/program files (x86)/gnu tools arm embedded/4.8 2014q2/bin/../lib/gcc/arm-none-eabi/4.8.4/armv7e-m/fpu\libgcc.a(_dvmd_tls.o)
                              c:/program files (x86)/gnu tools arm embedded/4.8 2014q2/bin/../lib/gcc/arm-none-eabi/4.8.4/armv7e-m/fpu\libgcc.a(_aeabi_uldivmod.o) (__aeabi_ldiv0)
c:/program files (x86)/gnu tools arm embedded/4.8 2014q2/bin/../lib/gcc/arm-none-eabi/4.8.4/armv7e-m/fpu\libgcc.a(_divdi3.o)
                              c:/program files (x86)/gnu tools arm embedded/4.8 2014q2/bin/../lib/gcc/arm-none-eabi/4.8.4/armv7e-m/fpu\libgcc.a(bpabi.o) (__divdi3)
c:/program files (x86)/gnu tools arm embedded/4.8 2014q2/bin/../lib/gcc/arm-none-eabi/4.8.4/armv7e-m/fpu\libgcc.a(_udivdi3.o)
                              c:/program files (x86)/gnu tools arm embedded/4.8 2014q2/bin/../lib/gcc/arm-none-eabi/4.8.4/armv7e-m/fpu\libgcc.a(bpabi.o) (__udivdi3)
..\..\..\..\..\..\..\..\..\Program Files (x86)\GNU Tools ARM Embedded\4.6 2012q2\arm-none-eabi\lib\armv7e-m\fpu\libg.a(lib_a-exit.o)
                              c:/program files (x86)/gnu tools arm embedded/4.8 2014q2/bin/../lib/gcc/arm-none-eabi/4.8.4/../../../../arm-none-eabi/lib/armv7e-m/fpu/crt0.o (exit)
..\..\..\..\..\..\..\..\..\Program Files (x86)\GNU Tools ARM Embedded\4.6 2012q2\arm-none-eabi\lib\armv7e-m\fpu\libg.a(lib_a-impure.o)
                              ..\..\..\..\..\..\..\..\..\Program Files (x86)\GNU Tools ARM Embedded\4.6 2012q2\arm-none-eabi\lib\armv7e-m\fpu\libg.a(lib_a-exit.o) (_global_impure_ptr)
..\..\..\..\..\..\..\..\..\Program Files (x86)\GNU Tools ARM Embedded\4.6 2012q2\arm-none-eabi\lib\armv7e-m\fpu\libg.a(lib_a-init.o)
                              c:/program files (x86)/gnu tools arm embedded/4.8 2014q2/bin/../lib/gcc/arm-none-eabi/4.8.4/../../../../arm-none-eabi/lib/armv7e-m/fpu/crt0.o (__libc_init_array)
..\..\..\..\..\..\..\..\..\Program Files (x86)\GNU Tools ARM Embedded\4.6 2012q2\arm-none-eabi\lib\armv7e-m\fpu\libg.a(lib_a-memset.o)
                              c:/program files (x86)/gnu tools arm embedded/4.8 2014q2/bin/../lib/gcc/arm-none-eabi/4.8.4/../../../../arm-none-eabi/lib/armv7e-m/fpu/crt0.o (memset)
..\..\..\..\..\..\..\..\..\Program Files (x86)\GNU Tools ARM Embedded\4.6 2012q2\arm-none-eabi\lib\armv7e-m\fpu\libg.a(lib_a-__call_atexit.o)
                              ..\..\..\..\..\..\..\..\..\Program Files (x86)\GNU Tools ARM Embedded\4.6 2012q2\arm-none-eabi\lib\armv7e-m\fpu\libg.a(lib_a-exit.o) (__call_exitprocs)
..\..\..\..\..\..\..\..\..\Program Files (x86)\GNU Tools ARM Embedded\4.6 2012q2\arm-none-eabi\lib\armv7e-m\fpu\libg.a(lib_a-atexit.o)
                              ..\..\..\..\..\..\..\..\..\Program Files (x86)\GNU Tools ARM Embedded\4.6 2012q2\arm-none-eabi\lib\armv7e-m\fpu\libg.a(lib_a-__call_atexit.o) (atexit)
..\..\..\..\..\..\..\..\..\Program Files (x86)\GNU Tools ARM Embedded\4.6 2012q2\arm-none-eabi\lib\armv7e-m\fpu\libg.a(lib_a-fini.o)
                              ..\..\..\..\..\..\..\..\..\Program Files (x86)\GNU Tools ARM Embedded\4.6 2012q2\arm-none-eabi\lib\armv7e-m\fpu\libg.a(lib_a-__call_atexit.o) (__libc_fini_array)
..\..\..\..\..\..\..\..\..\Program Files (x86)\GNU Tools ARM Embedded\4.6 2012q2\arm-none-eabi\lib\armv7e-m\fpu\libg.a(lib_a-__atexit.o)
                              ..\..\..\..\..\..\..\..\..\Program Files (x86)\GNU Tools ARM Embedded\4.6 2012q2\arm-none-eabi\lib\armv7e-m\fpu\libg.a(lib_a-atexit.o) (__register_exitproc)

Allocating common symbols
Common symbol       size              file

OSSchedLockNestingCtr
                    0x1               ..\obj\os_var.o
OS_AppTaskReturnHookPtr
                    0x4               ..\obj\os_var.o
OSStatTaskTimeMax   0x4               ..\obj\os_var.o
OSStatTaskCtr       0x4               ..\obj\os_var.o
OSTaskRegNextAvailID
                    0x1               ..\obj\os_var.o
OSRunning           0x1               ..\obj\os_var.o
OSRdyList           0x300             ..\obj\os_var.o
OSPrioHighRdy       0x1               ..\obj\os_var.o
rotorTCB            0xc0              ..\obj\sorting.o
OSStatTaskRdy       0x1               ..\obj\os_var.o
OSSemDbgListPtr     0x4               ..\obj\os_var.o
OS_AppTaskCreateHookPtr
                    0x4               ..\obj\os_var.o
OSCfg_StatTaskStk   0x200             ..\obj\os_cfg_app.o
triTCB              0xc0              ..\obj\sorting.o
OSCfg_TickWheel     0x80              ..\obj\os_cfg_app.o
OSPrioCur           0x1               ..\obj\os_var.o
OSTickTaskTCB       0xc0              ..\obj\os_var.o
Math_RandSeedCur    0x4               ..\obj\lib_math.o
OSTmrTickCtr        0x4               ..\obj\os_var.o
OSTCBCurPtr         0x4               ..\obj\os_var.o
OSCfg_MsgPool       0x640             ..\obj\os_cfg_app.o
OSQQty              0x2               ..\obj\os_var.o
OSStatTaskCPUUsageMax
                    0x2               ..\obj\os_var.o
OSPrioSaved         0x1               ..\obj\os_var.o
OSTCBHighRdyPtr     0x4               ..\obj\os_var.o
tapisEntreeSTK      0x200             ..\obj\sorting.o
CPU_TS_TmrFreq_Hz   0x4               ..\obj\cpu_core.o
OSTaskDbgListPtr    0x4               ..\obj\os_var.o
OSTmrTaskTimeMax    0x4               ..\obj\os_var.o
OS_AppTaskDelHookPtr
                    0x4               ..\obj\os_var.o
evacGaucheTCB       0xc0              ..\obj\sorting.o
OS_AppTimeTickHookPtr
                    0x4               ..\obj\os_var.o
Mem_PoolHeap        0x48              ..\obj\lib_mem.o
OSTaskCtxSwCtr      0x4               ..\obj\os_var.o
OSStatTaskCPUUsage  0x2               ..\obj\os_var.o
OSIntNestingCtr     0x1               ..\obj\os_var.o
OSTaskQty           0x2               ..\obj\os_var.o
OS_CPU_ExceptStkBase
                    0x4               ..\obj\os_cpu_c.o
OSTmrTaskTCB        0xc0              ..\obj\os_var.o
OSMsgPool           0xc               ..\obj\os_var.o
OSIdleTaskTCB       0xc0              ..\obj\os_var.o
OSQDbgListPtr       0x4               ..\obj\os_var.o
tapisTransfertTCB   0xc0              ..\obj\sorting.o
OSSemQty            0x2               ..\obj\os_var.o
OSMemDbgListPtr     0x4               ..\obj\os_var.o
OSCfg_TmrTaskStk    0x200             ..\obj\os_cfg_app.o
OS_AppIdleTaskHookPtr
                    0x4               ..\obj\os_var.o
OSStatTaskCtrMax    0x4               ..\obj\os_var.o
Mem_Heap            0x5c00            ..\obj\lib_mem.o
OSTickCtr           0x4               ..\obj\os_var.o
OS_AppTaskSwHookPtr
                    0x4               ..\obj\os_var.o
OSCfg_TmrWheel      0x88              ..\obj\os_cfg_app.o
OSTmrQty            0x2               ..\obj\os_var.o
OSCfg_ISRStk        0x400             ..\obj\os_cfg_app.o
evacDroiteTCB       0xc0              ..\obj\sorting.o
triSTK              0x200             ..\obj\sorting.o
OSIdleTaskCtr       0x4               ..\obj\os_var.o
OSStatTaskCtrRun    0x4               ..\obj\os_var.o
OS_AppStatTaskHookPtr
                    0x4               ..\obj\os_var.o
OSCfg_TickTaskStk   0x200             ..\obj\os_cfg_app.o
Mem_PoolTbl         0x4               ..\obj\lib_mem.o
OSFlagQty           0x2               ..\obj\os_var.o
OSFlagDbgListPtr    0x4               ..\obj\os_var.o
OSStatResetFlag     0x1               ..\obj\os_var.o
OSMemQty            0x2               ..\obj\os_var.o
OSMutexQty          0x2               ..\obj\os_var.o
rotorSTK            0x200             ..\obj\sorting.o
OSStatTaskTCB       0xc0              ..\obj\os_var.o
OSPrioTbl           0x8               ..\obj\os_prio.o
OSTmrDbgListPtr     0x4               ..\obj\os_var.o
evacDroiteSTK       0x200             ..\obj\sorting.o
OSTickTaskTimeMax   0x4               ..\obj\os_var.o
OSTmrUpdateCnt      0x4               ..\obj\os_var.o
tapisEntreeTCB      0xc0              ..\obj\sorting.o
OSMutexDbgListPtr   0x4               ..\obj\os_var.o
evacGaucheSTK       0x200             ..\obj\sorting.o
OSTmrUpdateCtr      0x4               ..\obj\os_var.o
tapisTransfertSTK   0x200             ..\obj\sorting.o
OSCfg_IdleTaskStk   0x200             ..\obj\os_cfg_app.o
CPU_Name            0x10              ..\obj\cpu_core.o

Discarded input sections

 .text          0x00000000        0x0 c:/program files (x86)/gnu tools arm embedded/4.8 2014q2/bin/../lib/gcc/arm-none-eabi/4.8.4/armv7e-m/fpu/crti.o
 .data          0x00000000        0x0 c:/program files (x86)/gnu tools arm embedded/4.8 2014q2/bin/../lib/gcc/arm-none-eabi/4.8.4/armv7e-m/fpu/crti.o
 .bss           0x00000000        0x0 c:/program files (x86)/gnu tools arm embedded/4.8 2014q2/bin/../lib/gcc/arm-none-eabi/4.8.4/armv7e-m/fpu/crti.o
 .data          0x00000000        0x4 c:/program files (x86)/gnu tools arm embedded/4.8 2014q2/bin/../lib/gcc/arm-none-eabi/4.8.4/armv7e-m/fpu/crtbegin.o
 .text          0x00000000       0x74 c:/program files (x86)/gnu tools arm embedded/4.8 2014q2/bin/../lib/gcc/arm-none-eabi/4.8.4/../../../../arm-none-eabi/lib/armv7e-m/fpu/crt0.o
 .data          0x00000000        0x0 c:/program files (x86)/gnu tools arm embedded/4.8 2014q2/bin/../lib/gcc/arm-none-eabi/4.8.4/../../../../arm-none-eabi/lib/armv7e-m/fpu/crt0.o
 .bss           0x00000000        0x0 c:/program files (x86)/gnu tools arm embedded/4.8 2014q2/bin/../lib/gcc/arm-none-eabi/4.8.4/../../../../arm-none-eabi/lib/armv7e-m/fpu/crt0.o
 .ARM.extab     0x00000000        0x0 c:/program files (x86)/gnu tools arm embedded/4.8 2014q2/bin/../lib/gcc/arm-none-eabi/4.8.4/../../../../arm-none-eabi/lib/armv7e-m/fpu/crt0.o
 .ARM.exidx     0x00000000        0x8 c:/program files (x86)/gnu tools arm embedded/4.8 2014q2/bin/../lib/gcc/arm-none-eabi/4.8.4/../../../../arm-none-eabi/lib/armv7e-m/fpu/crt0.o
 .ARM.attributes
                0x00000000       0x20 c:/program files (x86)/gnu tools arm embedded/4.8 2014q2/bin/../lib/gcc/arm-none-eabi/4.8.4/../../../../arm-none-eabi/lib/armv7e-m/fpu/crt0.o
 .text          0x00000000        0x0 ..\obj\os_pend_multi.o
 .data          0x00000000        0x0 ..\obj\os_pend_multi.o
 .bss           0x00000000        0x0 ..\obj\os_pend_multi.o
 .text.OSPendMulti
                0x00000000      0x17c ..\obj\os_pend_multi.o
 .text.OS_PendMultiGetRdy
                0x00000000       0xec ..\obj\os_pend_multi.o
 .text.OS_PendMultiValidate
                0x00000000       0x84 ..\obj\os_pend_multi.o
 .text.OS_PendMultiWait
                0x00000000       0xb0 ..\obj\os_pend_multi.o
 .debug_info    0x00000000      0xf36 ..\obj\os_pend_multi.o
 .debug_abbrev  0x00000000      0x176 ..\obj\os_pend_multi.o
 .debug_aranges
                0x00000000       0x38 ..\obj\os_pend_multi.o
 .debug_ranges  0x00000000       0x28 ..\obj\os_pend_multi.o
 .debug_line    0x00000000      0x1fa ..\obj\os_pend_multi.o
 .debug_str     0x00000000     0x1319 ..\obj\os_pend_multi.o
 .comment       0x00000000       0x71 ..\obj\os_pend_multi.o
 .ARM.attributes
                0x00000000       0x39 ..\obj\os_pend_multi.o
 .debug_frame   0x00000000       0x8c ..\obj\os_pend_multi.o
 .text          0x00000000        0x0 ..\obj\stm32f4xx_syscfg.o
 .data          0x00000000        0x0 ..\obj\stm32f4xx_syscfg.o
 .bss           0x00000000        0x0 ..\obj\stm32f4xx_syscfg.o
 .text.SYSCFG_DeInit
                0x00000000       0x1c ..\obj\stm32f4xx_syscfg.o
 .text.SYSCFG_MemoryRemapConfig
                0x00000000       0x20 ..\obj\stm32f4xx_syscfg.o
 .text.SYSCFG_MemorySwappingBank
                0x00000000       0x20 ..\obj\stm32f4xx_syscfg.o
 .text.SYSCFG_EXTILineConfig
                0x00000000       0x7c ..\obj\stm32f4xx_syscfg.o
 .text.SYSCFG_ETH_MediaInterfaceConfig
                0x00000000       0x1c ..\obj\stm32f4xx_syscfg.o
 .text.SYSCFG_CompensationCellCmd
                0x00000000       0x20 ..\obj\stm32f4xx_syscfg.o
 .text.SYSCFG_GetCompensationCellStatus
                0x00000000       0x34 ..\obj\stm32f4xx_syscfg.o
 .debug_info    0x00000000      0x290 ..\obj\stm32f4xx_syscfg.o
 .debug_abbrev  0x00000000      0x131 ..\obj\stm32f4xx_syscfg.o
 .debug_aranges
                0x00000000       0x50 ..\obj\stm32f4xx_syscfg.o
 .debug_ranges  0x00000000       0x40 ..\obj\stm32f4xx_syscfg.o
 .debug_line    0x00000000      0x26e ..\obj\stm32f4xx_syscfg.o
 .debug_str     0x00000000      0x342 ..\obj\stm32f4xx_syscfg.o
 .comment       0x00000000       0x71 ..\obj\stm32f4xx_syscfg.o
 .ARM.attributes
                0x00000000       0x39 ..\obj\stm32f4xx_syscfg.o
 .debug_frame   0x00000000       0xd8 ..\obj\stm32f4xx_syscfg.o
 .data          0x00000000        0x0 ..\obj\cpu_a.o
 .bss           0x00000000        0x0 ..\obj\cpu_a.o
 .text          0x00000000        0x0 ..\obj\os_time.o
 .data          0x00000000        0x0 ..\obj\os_time.o
 .bss           0x00000000        0x0 ..\obj\os_time.o
 .text.OSTimeDlyHMSM
                0x00000000      0x204 ..\obj\os_time.o
 .text.OSTimeDlyResume
                0x00000000      0x144 ..\obj\os_time.o
 .text.OSTimeGet
                0x00000000       0x34 ..\obj\os_time.o
 .text.OSTimeSet
                0x00000000       0x30 ..\obj\os_time.o
 .data          0x00000000        0x0 ..\obj\os_cpu_a.o
 .bss           0x00000000        0x0 ..\obj\os_cpu_a.o
 .text          0x00000000        0x0 ..\obj\stm32f4xx_sdio.o
 .data          0x00000000        0x0 ..\obj\stm32f4xx_sdio.o
 .bss           0x00000000        0x0 ..\obj\stm32f4xx_sdio.o
 .text.SDIO_DeInit
                0x00000000       0x1c ..\obj\stm32f4xx_sdio.o
 .text.SDIO_Init
                0x00000000       0x5c ..\obj\stm32f4xx_sdio.o
 .text.SDIO_StructInit
                0x00000000       0x38 ..\obj\stm32f4xx_sdio.o
 .text.SDIO_ClockCmd
                0x00000000       0x20 ..\obj\stm32f4xx_sdio.o
 .text.SDIO_SetPowerState
                0x00000000       0x1c ..\obj\stm32f4xx_sdio.o
 .text.SDIO_GetPowerState
                0x00000000       0x1c ..\obj\stm32f4xx_sdio.o
 .text.SDIO_SendCommand
                0x00000000       0x58 ..\obj\stm32f4xx_sdio.o
 .text.SDIO_CmdStructInit
                0x00000000       0x30 ..\obj\stm32f4xx_sdio.o
 .text.SDIO_GetCommandResponse
                0x00000000       0x18 ..\obj\stm32f4xx_sdio.o
 .text.SDIO_GetResponse
                0x00000000       0x28 ..\obj\stm32f4xx_sdio.o
 .text.SDIO_DataConfig
                0x00000000       0x5c ..\obj\stm32f4xx_sdio.o
 .text.SDIO_DataStructInit
                0x00000000       0x38 ..\obj\stm32f4xx_sdio.o
 .text.SDIO_GetDataCounter
                0x00000000       0x18 ..\obj\stm32f4xx_sdio.o
 .text.SDIO_ReadData
                0x00000000       0x18 ..\obj\stm32f4xx_sdio.o
 .text.SDIO_WriteData
                0x00000000       0x20 ..\obj\stm32f4xx_sdio.o
 .text.SDIO_GetFIFOCount
                0x00000000       0x18 ..\obj\stm32f4xx_sdio.o
 .text.SDIO_StartSDIOReadWait
                0x00000000       0x20 ..\obj\stm32f4xx_sdio.o
 .text.SDIO_StopSDIOReadWait
                0x00000000       0x20 ..\obj\stm32f4xx_sdio.o
 .text.SDIO_SetSDIOReadWaitMode
                0x00000000       0x1c ..\obj\stm32f4xx_sdio.o
 .text.SDIO_SetSDIOOperation
                0x00000000       0x20 ..\obj\stm32f4xx_sdio.o
 .text.SDIO_SendSDIOSuspendCmd
                0x00000000       0x20 ..\obj\stm32f4xx_sdio.o
 .text.SDIO_CommandCompletionCmd
                0x00000000       0x20 ..\obj\stm32f4xx_sdio.o
 .text.SDIO_CEATAITCmd
                0x00000000       0x2c ..\obj\stm32f4xx_sdio.o
 .text.SDIO_SendCEATACmd
                0x00000000       0x20 ..\obj\stm32f4xx_sdio.o
 .text.SDIO_DMACmd
                0x00000000       0x20 ..\obj\stm32f4xx_sdio.o
 .text.SDIO_ITConfig
                0x00000000       0x3c ..\obj\stm32f4xx_sdio.o
 .text.SDIO_GetFlagStatus
                0x00000000       0x34 ..\obj\stm32f4xx_sdio.o
 .text.SDIO_ClearFlag
                0x00000000       0x1c ..\obj\stm32f4xx_sdio.o
 .text.SDIO_GetITStatus
                0x00000000       0x34 ..\obj\stm32f4xx_sdio.o
 .text.SDIO_ClearITPendingBit
                0x00000000       0x1c ..\obj\stm32f4xx_sdio.o
 .debug_info    0x00000000      0x7f5 ..\obj\stm32f4xx_sdio.o
 .debug_abbrev  0x00000000      0x177 ..\obj\stm32f4xx_sdio.o
 .debug_aranges
                0x00000000      0x108 ..\obj\stm32f4xx_sdio.o
 .debug_ranges  0x00000000       0xf8 ..\obj\stm32f4xx_sdio.o
 .debug_line    0x00000000      0x491 ..\obj\stm32f4xx_sdio.o
 .debug_str     0x00000000      0x674 ..\obj\stm32f4xx_sdio.o
 .comment       0x00000000       0x71 ..\obj\stm32f4xx_sdio.o
 .ARM.attributes
                0x00000000       0x39 ..\obj\stm32f4xx_sdio.o
 .debug_frame   0x00000000      0x344 ..\obj\stm32f4xx_sdio.o
 .text          0x00000000        0x0 ..\obj\bsp_int.o
 .data          0x00000000        0x0 ..\obj\bsp_int.o
 .text.BSP_IntClr
                0x00000000       0x14 ..\obj\bsp_int.o
 .text.BSP_IntDis
                0x00000000       0x24 ..\obj\bsp_int.o
 .text.BSP_IntEn
                0x00000000       0x24 ..\obj\bsp_int.o
 .text.BSP_IntPrioSet
                0x00000000       0x3c ..\obj\bsp_int.o
 .text          0x00000000        0x0 ..\obj\stm32f4xx_cryp_aes.o
 .data          0x00000000        0x0 ..\obj\stm32f4xx_cryp_aes.o
 .bss           0x00000000        0x0 ..\obj\stm32f4xx_cryp_aes.o
 .text.CRYP_AES_ECB
                0x00000000      0x3d0 ..\obj\stm32f4xx_cryp_aes.o
 .text.CRYP_AES_CBC
                0x00000000      0x454 ..\obj\stm32f4xx_cryp_aes.o
 .text.CRYP_AES_CTR
                0x00000000      0x3f8 ..\obj\stm32f4xx_cryp_aes.o
 .text.CRYP_AES_GCM
                0x00000000      0x9b4 ..\obj\stm32f4xx_cryp_aes.o
 .text.CRYP_AES_CCM
                0x00000000      0xd00 ..\obj\stm32f4xx_cryp_aes.o
 .debug_info    0x00000000     0x169b ..\obj\stm32f4xx_cryp_aes.o
 .debug_abbrev  0x00000000      0x1c9 ..\obj\stm32f4xx_cryp_aes.o
 .debug_aranges
                0x00000000       0x40 ..\obj\stm32f4xx_cryp_aes.o
 .debug_ranges  0x00000000       0x30 ..\obj\stm32f4xx_cryp_aes.o
 .debug_line    0x00000000      0xd47 ..\obj\stm32f4xx_cryp_aes.o
 .debug_str     0x00000000      0x4ed ..\obj\stm32f4xx_cryp_aes.o
 .comment       0x00000000       0x71 ..\obj\stm32f4xx_cryp_aes.o
 .ARM.attributes
                0x00000000       0x39 ..\obj\stm32f4xx_cryp_aes.o
 .debug_frame   0x00000000       0xbc ..\obj\stm32f4xx_cryp_aes.o
 .text          0x00000000        0x0 ..\obj\cpu_c.o
 .data          0x00000000        0x0 ..\obj\cpu_c.o
 .bss           0x00000000        0x0 ..\obj\cpu_c.o
 .text.CPU_BitBandClr
                0x00000000       0x74 ..\obj\cpu_c.o
 .text.CPU_BitBandSet
                0x00000000       0x74 ..\obj\cpu_c.o
 .text.CPU_IntSrcDis
                0x00000000      0x144 ..\obj\cpu_c.o
 .text.CPU_IntSrcEn
                0x00000000      0x144 ..\obj\cpu_c.o
 .text.CPU_IntSrcPendClr
                0x00000000       0xd4 ..\obj\cpu_c.o
 .text.CPU_IntSrcPrioSet
                0x00000000      0x254 ..\obj\cpu_c.o
 .text.CPU_IntSrcPrioGet
                0x00000000      0x1f0 ..\obj\cpu_c.o
 .debug_info    0x00000000      0x391 ..\obj\cpu_c.o
 .debug_abbrev  0x00000000      0x129 ..\obj\cpu_c.o
 .debug_aranges
                0x00000000       0x50 ..\obj\cpu_c.o
 .debug_ranges  0x00000000       0x40 ..\obj\cpu_c.o
 .debug_line    0x00000000      0x1fd ..\obj\cpu_c.o
 .debug_str     0x00000000      0x26c ..\obj\cpu_c.o
 .comment       0x00000000       0x71 ..\obj\cpu_c.o
 .ARM.attributes
                0x00000000       0x39 ..\obj\cpu_c.o
 .debug_frame   0x00000000       0xe8 ..\obj\cpu_c.o
 .text          0x00000000        0x0 ..\obj\stm32f4xx_hash.o
 .data          0x00000000        0x0 ..\obj\stm32f4xx_hash.o
 .bss           0x00000000        0x0 ..\obj\stm32f4xx_hash.o
 .text.HASH_DeInit
                0x00000000       0x18 ..\obj\stm32f4xx_hash.o
 .text.HASH_Init
                0x00000000       0x70 ..\obj\stm32f4xx_hash.o
 .text.HASH_StructInit
                0x00000000       0x2c ..\obj\stm32f4xx_hash.o
 .text.HASH_Reset
                0x00000000       0x1c ..\obj\stm32f4xx_hash.o
 .text.HASH_SetLastWordValidBitsNbr
                0x00000000       0x30 ..\obj\stm32f4xx_hash.o
 .text.HASH_DataIn
                0x00000000       0x1c ..\obj\stm32f4xx_hash.o
 .text.HASH_GetInFIFOWordsNbr
                0x00000000       0x20 ..\obj\stm32f4xx_hash.o
 .text.HASH_GetDigest
                0x00000000       0x5c ..\obj\stm32f4xx_hash.o
 .text.HASH_StartDigest
                0x00000000       0x1c ..\obj\stm32f4xx_hash.o
 .text.HASH_SaveContext
                0x00000000       0x5c ..\obj\stm32f4xx_hash.o
 .text.HASH_RestoreContext
                0x00000000       0x68 ..\obj\stm32f4xx_hash.o
 .text.HASH_AutoStartDigest
                0x00000000       0x38 ..\obj\stm32f4xx_hash.o
 .text.HASH_DMACmd
                0x00000000       0x38 ..\obj\stm32f4xx_hash.o
 .text.HASH_ITConfig
                0x00000000       0x3c ..\obj\stm32f4xx_hash.o
 .text.HASH_GetFlagStatus
                0x00000000       0x50 ..\obj\stm32f4xx_hash.o
 .text.HASH_ClearFlag
                0x00000000       0x20 ..\obj\stm32f4xx_hash.o
 .text.HASH_GetITStatus
                0x00000000       0x44 ..\obj\stm32f4xx_hash.o
 .text.HASH_ClearITPendingBit
                0x00000000       0x20 ..\obj\stm32f4xx_hash.o
 .debug_info    0x00000000      0x59b ..\obj\stm32f4xx_hash.o
 .debug_abbrev  0x00000000      0x1d6 ..\obj\stm32f4xx_hash.o
 .debug_aranges
                0x00000000       0xa8 ..\obj\stm32f4xx_hash.o
 .debug_ranges  0x00000000       0x98 ..\obj\stm32f4xx_hash.o
 .debug_line    0x00000000      0x3d3 ..\obj\stm32f4xx_hash.o
 .debug_str     0x00000000      0x48f ..\obj\stm32f4xx_hash.o
 .comment       0x00000000       0x71 ..\obj\stm32f4xx_hash.o
 .ARM.attributes
                0x00000000       0x39 ..\obj\stm32f4xx_hash.o
 .debug_frame   0x00000000      0x1fc ..\obj\stm32f4xx_hash.o
 .text          0x00000000        0x0 ..\obj\stm32f4xx_dma2d.o
 .data          0x00000000        0x0 ..\obj\stm32f4xx_dma2d.o
 .bss           0x00000000        0x0 ..\obj\stm32f4xx_dma2d.o
 .text.DMA2D_DeInit
                0x00000000       0x1c ..\obj\stm32f4xx_dma2d.o
 .text.DMA2D_Init
                0x00000000      0x15c ..\obj\stm32f4xx_dma2d.o
 .text.DMA2D_StructInit
                0x00000000       0x50 ..\obj\stm32f4xx_dma2d.o
 .text.DMA2D_StartTransfer
                0x00000000       0x1c ..\obj\stm32f4xx_dma2d.o
 .text.DMA2D_AbortTransfer
                0x00000000       0x1c ..\obj\stm32f4xx_dma2d.o
 .text.DMA2D_Suspend
                0x00000000       0x38 ..\obj\stm32f4xx_dma2d.o
 .text.DMA2D_FGConfig
                0x00000000       0xdc ..\obj\stm32f4xx_dma2d.o
 .text.DMA2D_FG_StructInit
                0x00000000       0x54 ..\obj\stm32f4xx_dma2d.o
 .text.DMA2D_BGConfig
                0x00000000       0xdc ..\obj\stm32f4xx_dma2d.o
 .text.DMA2D_BG_StructInit
                0x00000000       0x54 ..\obj\stm32f4xx_dma2d.o
 .text.DMA2D_FGStart
                0x00000000       0x38 ..\obj\stm32f4xx_dma2d.o
 .text.DMA2D_BGStart
                0x00000000       0x38 ..\obj\stm32f4xx_dma2d.o
 .text.DMA2D_DeadTimeConfig
                0x00000000       0x54 ..\obj\stm32f4xx_dma2d.o
 .text.DMA2D_LineWatermarkConfig
                0x00000000       0x1c ..\obj\stm32f4xx_dma2d.o
 .text.DMA2D_ITConfig
                0x00000000       0x3c ..\obj\stm32f4xx_dma2d.o
 .text.DMA2D_GetFlagStatus
                0x00000000       0x34 ..\obj\stm32f4xx_dma2d.o
 .text.DMA2D_ClearFlag
                0x00000000       0x1c ..\obj\stm32f4xx_dma2d.o
 .text.DMA2D_GetITStatus
                0x00000000       0x58 ..\obj\stm32f4xx_dma2d.o
 .text.DMA2D_ClearITPendingBit
                0x00000000       0x24 ..\obj\stm32f4xx_dma2d.o
 .debug_info    0x00000000      0x819 ..\obj\stm32f4xx_dma2d.o
 .debug_abbrev  0x00000000      0x1a6 ..\obj\stm32f4xx_dma2d.o
 .debug_aranges
                0x00000000       0xb0 ..\obj\stm32f4xx_dma2d.o
 .debug_ranges  0x00000000       0xa0 ..\obj\stm32f4xx_dma2d.o
 .debug_line    0x00000000      0x421 ..\obj\stm32f4xx_dma2d.o
 .debug_str     0x00000000      0x76a ..\obj\stm32f4xx_dma2d.o
 .comment       0x00000000       0x71 ..\obj\stm32f4xx_dma2d.o
 .ARM.attributes
                0x00000000       0x39 ..\obj\stm32f4xx_dma2d.o
 .debug_frame   0x00000000      0x21c ..\obj\stm32f4xx_dma2d.o
 .text          0x00000000        0x0 ..\obj\lib_mem.o
 .data          0x00000000        0x0 ..\obj\lib_mem.o
 .bss           0x00000000        0x0 ..\obj\lib_mem.o
 .text.Mem_Move
                0x00000000      0x128 ..\obj\lib_mem.o
 .text.Mem_Cmp  0x00000000      0x138 ..\obj\lib_mem.o
 .text.Mem_HeapAlloc
                0x00000000      0x100 ..\obj\lib_mem.o
 .text.Mem_HeapGetSizeRem
                0x00000000       0x24 ..\obj\lib_mem.o
 .text.Mem_SegGetSizeRem
                0x00000000       0xf4 ..\obj\lib_mem.o
 .text.Mem_PoolClr
                0x00000000       0xa4 ..\obj\lib_mem.o
 .text.Mem_PoolCreate
                0x00000000      0x490 ..\obj\lib_mem.o
 .text.Mem_PoolBlkGetNbrAvail
                0x00000000       0x70 ..\obj\lib_mem.o
 .text.Mem_PoolBlkGet
                0x00000000       0xec ..\obj\lib_mem.o
 .text.Mem_PoolBlkGetUsedAtIx
                0x00000000       0xdc ..\obj\lib_mem.o
 .text.Mem_PoolBlkFree
                0x00000000      0x16c ..\obj\lib_mem.o
 .text.Mem_PoolBlkIxGet
                0x00000000      0x164 ..\obj\lib_mem.o
 .text.Mem_PoolBlkIsValidAddr
                0x00000000       0xc4 ..\obj\lib_mem.o
 .text.Mem_SegCalcTotSize
                0x00000000      0x120 ..\obj\lib_mem.o
 .text.Mem_SegAlloc
                0x00000000       0xa0 ..\obj\lib_mem.o
 .text          0x00000000        0x0 ..\obj\stm32f4xx_hash_sha1.o
 .data          0x00000000        0x0 ..\obj\stm32f4xx_hash_sha1.o
 .bss           0x00000000        0x0 ..\obj\stm32f4xx_hash_sha1.o
 .text.HASH_SHA1
                0x00000000      0x11c ..\obj\stm32f4xx_hash_sha1.o
 .text.HMAC_SHA1
                0x00000000      0x214 ..\obj\stm32f4xx_hash_sha1.o
 .debug_info    0x00000000      0x48e ..\obj\stm32f4xx_hash_sha1.o
 .debug_abbrev  0x00000000      0x171 ..\obj\stm32f4xx_hash_sha1.o
 .debug_aranges
                0x00000000       0x28 ..\obj\stm32f4xx_hash_sha1.o
 .debug_ranges  0x00000000       0x18 ..\obj\stm32f4xx_hash_sha1.o
 .debug_line    0x00000000      0x3cc ..\obj\stm32f4xx_hash_sha1.o
 .debug_str     0x00000000      0x324 ..\obj\stm32f4xx_hash_sha1.o
 .comment       0x00000000       0x71 ..\obj\stm32f4xx_hash_sha1.o
 .ARM.attributes
                0x00000000       0x39 ..\obj\stm32f4xx_hash_sha1.o
 .debug_frame   0x00000000       0x50 ..\obj\stm32f4xx_hash_sha1.o
 .text          0x00000000        0x0 ..\obj\os_cpu_c.o
 .data          0x00000000        0x0 ..\obj\os_cpu_c.o
 .bss           0x00000000        0x0 ..\obj\os_cpu_c.o
 .text          0x00000000        0x0 ..\obj\cpu_core.o
 .data          0x00000000        0x0 ..\obj\cpu_core.o
 .bss           0x00000000        0x0 ..\obj\cpu_core.o
 .rodata        0x00000000      0x100 ..\obj\cpu_core.o
 .text.CPU_SW_Exception
                0x00000000        0x8 ..\obj\cpu_core.o
 .text.CPU_NameGet
                0x00000000       0x4c ..\obj\cpu_core.o
 .text.CPU_NameSet
                0x00000000       0x68 ..\obj\cpu_core.o
 .text.CPU_TS_Get32
                0x00000000       0x18 ..\obj\cpu_core.o
 .text.CPU_TS_Update
                0x00000000        0xc ..\obj\cpu_core.o
 .text.CPU_TS_TmrFreqGet
                0x00000000       0x38 ..\obj\cpu_core.o
 .text.CPU_CntLeadZeros08
                0x00000000       0x24 ..\obj\cpu_core.o
 .text.CPU_CntLeadZeros16
                0x00000000       0x24 ..\obj\cpu_core.o
 .text.CPU_CntLeadZeros32
                0x00000000       0x1c ..\obj\cpu_core.o
 .text.CPU_CntLeadZeros64
                0x00000000      0x180 ..\obj\cpu_core.o
 .text.CPU_CntTrailZeros08
                0x00000000       0x28 ..\obj\cpu_core.o
 .text.CPU_CntTrailZeros16
                0x00000000       0x28 ..\obj\cpu_core.o
 .text.CPU_CntTrailZeros32
                0x00000000       0x24 ..\obj\cpu_core.o
 .text.CPU_CntTrailZeros64
                0x00000000       0x50 ..\obj\cpu_core.o
 .text          0x00000000        0x0 ..\obj\stm32f4xx_usart.o
 .data          0x00000000        0x0 ..\obj\stm32f4xx_usart.o
 .bss           0x00000000        0x0 ..\obj\stm32f4xx_usart.o
 .text.USART_DeInit
                0x00000000      0x114 ..\obj\stm32f4xx_usart.o
 .text.USART_Init
                0x00000000      0x174 ..\obj\stm32f4xx_usart.o
 .text.USART_StructInit
                0x00000000       0x38 ..\obj\stm32f4xx_usart.o
 .text.USART_ClockInit
                0x00000000       0x54 ..\obj\stm32f4xx_usart.o
 .text.USART_ClockStructInit
                0x00000000       0x2c ..\obj\stm32f4xx_usart.o
 .text.USART_Cmd
                0x00000000       0x40 ..\obj\stm32f4xx_usart.o
 .text.USART_SetPrescaler
                0x00000000       0x38 ..\obj\stm32f4xx_usart.o
 .text.USART_OverSampling8Cmd
                0x00000000       0x44 ..\obj\stm32f4xx_usart.o
 .text.USART_OneBitMethodCmd
                0x00000000       0x40 ..\obj\stm32f4xx_usart.o
 .text.USART_SendData
                0x00000000       0x24 ..\obj\stm32f4xx_usart.o
 .text.USART_ReceiveData
                0x00000000       0x20 ..\obj\stm32f4xx_usart.o
 .text.USART_SetAddress
                0x00000000       0x38 ..\obj\stm32f4xx_usart.o
 .text.USART_ReceiverWakeUpCmd
                0x00000000       0x40 ..\obj\stm32f4xx_usart.o
 .text.USART_WakeUpConfig
                0x00000000       0x38 ..\obj\stm32f4xx_usart.o
 .text.USART_LINBreakDetectLengthConfig
                0x00000000       0x38 ..\obj\stm32f4xx_usart.o
 .text.USART_LINCmd
                0x00000000       0x40 ..\obj\stm32f4xx_usart.o
 .text.USART_SendBreak
                0x00000000       0x24 ..\obj\stm32f4xx_usart.o
 .text.USART_HalfDuplexCmd
                0x00000000       0x40 ..\obj\stm32f4xx_usart.o
 .text.USART_SetGuardTime
                0x00000000       0x3c ..\obj\stm32f4xx_usart.o
 .text.USART_SmartCardCmd
                0x00000000       0x40 ..\obj\stm32f4xx_usart.o
 .text.USART_SmartCardNACKCmd
                0x00000000       0x40 ..\obj\stm32f4xx_usart.o
 .text.USART_IrDAConfig
                0x00000000       0x38 ..\obj\stm32f4xx_usart.o
 .text.USART_IrDACmd
                0x00000000       0x40 ..\obj\stm32f4xx_usart.o
 .text.USART_DMACmd
                0x00000000       0x48 ..\obj\stm32f4xx_usart.o
 .text.USART_ITConfig
                0x00000000       0x90 ..\obj\stm32f4xx_usart.o
 .text.USART_GetFlagStatus
                0x00000000       0x38 ..\obj\stm32f4xx_usart.o
 .text.USART_ClearFlag
                0x00000000       0x20 ..\obj\stm32f4xx_usart.o
 .text.USART_GetITStatus
                0x00000000       0xb0 ..\obj\stm32f4xx_usart.o
 .text.USART_ClearITPendingBit
                0x00000000       0x38 ..\obj\stm32f4xx_usart.o
 .debug_info    0x00000000      0x9c2 ..\obj\stm32f4xx_usart.o
 .debug_abbrev  0x00000000      0x155 ..\obj\stm32f4xx_usart.o
 .debug_aranges
                0x00000000      0x100 ..\obj\stm32f4xx_usart.o
 .debug_ranges  0x00000000       0xf0 ..\obj\stm32f4xx_usart.o
 .debug_line    0x00000000      0x4f5 ..\obj\stm32f4xx_usart.o
 .debug_str     0x00000000      0x6c3 ..\obj\stm32f4xx_usart.o
 .comment       0x00000000       0x71 ..\obj\stm32f4xx_usart.o
 .ARM.attributes
                0x00000000       0x39 ..\obj\stm32f4xx_usart.o
 .debug_frame   0x00000000      0x344 ..\obj\stm32f4xx_usart.o
 .text          0x00000000        0x0 ..\obj\stm32f4xx_pwr.o
 .data          0x00000000        0x0 ..\obj\stm32f4xx_pwr.o
 .bss           0x00000000        0x0 ..\obj\stm32f4xx_pwr.o
 .text.PWR_DeInit
                0x00000000       0x1c ..\obj\stm32f4xx_pwr.o
 .text.PWR_BackupAccessCmd
                0x00000000       0x20 ..\obj\stm32f4xx_pwr.o
 .text.PWR_PVDLevelConfig
                0x00000000       0x38 ..\obj\stm32f4xx_pwr.o
 .text.PWR_PVDCmd
                0x00000000       0x20 ..\obj\stm32f4xx_pwr.o
 .text.PWR_WakeUpPinCmd
                0x00000000       0x20 ..\obj\stm32f4xx_pwr.o
 .text.PWR_BackupRegulatorCmd
                0x00000000       0x20 ..\obj\stm32f4xx_pwr.o
 .text.PWR_MainRegulatorModeConfig
                0x00000000       0x38 ..\obj\stm32f4xx_pwr.o
 .text.PWR_OverDriveCmd
                0x00000000       0x20 ..\obj\stm32f4xx_pwr.o
 .text.PWR_OverDriveSWCmd
                0x00000000       0x20 ..\obj\stm32f4xx_pwr.o
 .text.PWR_UnderDriveCmd
                0x00000000       0x38 ..\obj\stm32f4xx_pwr.o
 .text.PWR_FlashPowerDownCmd
                0x00000000       0x20 ..\obj\stm32f4xx_pwr.o
 .text.PWR_EnterSTOPMode
                0x00000000       0x68 ..\obj\stm32f4xx_pwr.o
 .text.PWR_EnterUnderDriveSTOPMode
                0x00000000       0x68 ..\obj\stm32f4xx_pwr.o
 .text.PWR_EnterSTANDBYMode
                0x00000000       0x3c ..\obj\stm32f4xx_pwr.o
 .text.PWR_GetFlagStatus
                0x00000000       0x34 ..\obj\stm32f4xx_pwr.o
 .text.PWR_ClearFlag
                0x00000000       0x24 ..\obj\stm32f4xx_pwr.o
 .debug_info    0x00000000      0x5cd ..\obj\stm32f4xx_pwr.o
 .debug_abbrev  0x00000000      0x17f ..\obj\stm32f4xx_pwr.o
 .debug_aranges
                0x00000000       0x98 ..\obj\stm32f4xx_pwr.o
 .debug_ranges  0x00000000       0x88 ..\obj\stm32f4xx_pwr.o
 .debug_line    0x00000000      0x35d ..\obj\stm32f4xx_pwr.o
 .debug_str     0x00000000      0x403 ..\obj\stm32f4xx_pwr.o
 .comment       0x00000000       0x71 ..\obj\stm32f4xx_pwr.o
 .ARM.attributes
                0x00000000       0x39 ..\obj\stm32f4xx_pwr.o
 .debug_frame   0x00000000      0x1cc ..\obj\stm32f4xx_pwr.o
 .text          0x00000000        0x0 ..\obj\os_flag.o
 .data          0x00000000        0x0 ..\obj\os_flag.o
 .bss           0x00000000        0x0 ..\obj\os_flag.o
 .text.OSFlagCreate
                0x00000000       0x8c ..\obj\os_flag.o
 .text.OSFlagDel
                0x00000000      0x13c ..\obj\os_flag.o
 .text.OSFlagPend
                0x00000000      0x530 ..\obj\os_flag.o
 .text.OSFlagPendAbort
                0x00000000      0x104 ..\obj\os_flag.o
 .text.OSFlagPendGetFlagsRdy
                0x00000000       0x50 ..\obj\os_flag.o
 .text.OSFlagPost
                0x00000000       0x80 ..\obj\os_flag.o
 .text.OS_FlagBlock
                0x00000000       0x44 ..\obj\os_flag.o
 .rodata        0x00000000        0xc ..\obj\os_flag.o
 .text.OS_FlagClr
                0x00000000       0x34 ..\obj\os_flag.o
 .text.OS_FlagDbgListAdd
                0x00000000       0x4c ..\obj\os_flag.o
 .text.OS_FlagDbgListRemove
                0x00000000       0x70 ..\obj\os_flag.o
 .text.OS_FlagPost
                0x00000000      0x1dc ..\obj\os_flag.o
 .text.OS_FlagTaskRdy
                0x00000000       0x84 ..\obj\os_flag.o
 .text          0x00000000        0x0 ..\obj\stm32f4xx_can.o
 .data          0x00000000        0x0 ..\obj\stm32f4xx_can.o
 .bss           0x00000000        0x0 ..\obj\stm32f4xx_can.o
 .text.CAN_DeInit
                0x00000000       0x44 ..\obj\stm32f4xx_can.o
 .text.CAN_Init
                0x00000000      0x1a4 ..\obj\stm32f4xx_can.o
 .text.CAN_FilterInit
                0x00000000      0x164 ..\obj\stm32f4xx_can.o
 .text.CAN_StructInit
                0x00000000       0x54 ..\obj\stm32f4xx_can.o
 .text.CAN_SlaveStartBank
                0x00000000       0x60 ..\obj\stm32f4xx_can.o
 .text.CAN_DBGFreeze
                0x00000000       0x38 ..\obj\stm32f4xx_can.o
 .text.CAN_TTComModeCmd
                0x00000000       0x98 ..\obj\stm32f4xx_can.o
 .text.CAN_Transmit
                0x00000000      0x190 ..\obj\stm32f4xx_can.o
 .text.CAN_TransmitStatus
                0x00000000       0xd4 ..\obj\stm32f4xx_can.o
 .text.CAN_CancelTransmit
                0x00000000       0x50 ..\obj\stm32f4xx_can.o
 .text.CAN_Receive
                0x00000000      0x170 ..\obj\stm32f4xx_can.o
 .text.CAN_FIFORelease
                0x00000000       0x38 ..\obj\stm32f4xx_can.o
 .text.CAN_MessagePending
                0x00000000       0x4c ..\obj\stm32f4xx_can.o
 .text.CAN_OperatingModeRequest
                0x00000000       0xfc ..\obj\stm32f4xx_can.o
 .text.CAN_Sleep
                0x00000000       0x3c ..\obj\stm32f4xx_can.o
 .text.CAN_WakeUp
                0x00000000       0x58 ..\obj\stm32f4xx_can.o
 .text.CAN_GetLastErrorCode
                0x00000000       0x28 ..\obj\stm32f4xx_can.o
 .text.CAN_GetReceiveErrorCounter
                0x00000000       0x24 ..\obj\stm32f4xx_can.o
 .text.CAN_GetLSBTransmitErrorCounter
                0x00000000       0x28 ..\obj\stm32f4xx_can.o
 .text.CAN_ITConfig
                0x00000000       0x3c ..\obj\stm32f4xx_can.o
 .text.CAN_GetFlagStatus
                0x00000000       0xd0 ..\obj\stm32f4xx_can.o
 .text.CAN_ClearFlag
                0x00000000       0x70 ..\obj\stm32f4xx_can.o
 .text.CAN_GetITStatus
                0x00000000      0x194 ..\obj\stm32f4xx_can.o
 .text.CAN_ClearITPendingBit
                0x00000000       0xdc ..\obj\stm32f4xx_can.o
 .text.CheckITStatus
                0x00000000       0x30 ..\obj\stm32f4xx_can.o
 .debug_info    0x00000000      0xb9c ..\obj\stm32f4xx_can.o
 .debug_abbrev  0x00000000      0x1f3 ..\obj\stm32f4xx_can.o
 .debug_aranges
                0x00000000       0xe0 ..\obj\stm32f4xx_can.o
 .debug_ranges  0x00000000       0xd0 ..\obj\stm32f4xx_can.o
 .debug_line    0x00000000      0x5b9 ..\obj\stm32f4xx_can.o
 .debug_str     0x00000000      0x772 ..\obj\stm32f4xx_can.o
 .comment       0x00000000       0x71 ..\obj\stm32f4xx_can.o
 .ARM.attributes
                0x00000000       0x39 ..\obj\stm32f4xx_can.o
 .debug_frame   0x00000000      0x2d4 ..\obj\stm32f4xx_can.o
 .text          0x00000000        0x0 ..\obj\os_tick.o
 .data          0x00000000        0x0 ..\obj\os_tick.o
 .bss           0x00000000        0x0 ..\obj\os_tick.o
 .text          0x00000000        0x0 ..\obj\stm32f4xx_wwdg.o
 .data          0x00000000        0x0 ..\obj\stm32f4xx_wwdg.o
 .bss           0x00000000        0x0 ..\obj\stm32f4xx_wwdg.o
 .text.WWDG_DeInit
                0x00000000       0x1c ..\obj\stm32f4xx_wwdg.o
 .text.WWDG_SetPrescaler
                0x00000000       0x34 ..\obj\stm32f4xx_wwdg.o
 .text.WWDG_SetWindowValue
                0x00000000       0x38 ..\obj\stm32f4xx_wwdg.o
 .text.WWDG_EnableIT
                0x00000000       0x18 ..\obj\stm32f4xx_wwdg.o
 .text.WWDG_SetCounter
                0x00000000       0x24 ..\obj\stm32f4xx_wwdg.o
 .text.WWDG_Enable
                0x00000000       0x24 ..\obj\stm32f4xx_wwdg.o
 .text.WWDG_GetFlagStatus
                0x00000000       0x30 ..\obj\stm32f4xx_wwdg.o
 .text.WWDG_ClearFlag
                0x00000000       0x18 ..\obj\stm32f4xx_wwdg.o
 .debug_info    0x00000000      0x244 ..\obj\stm32f4xx_wwdg.o
 .debug_abbrev  0x00000000      0x140 ..\obj\stm32f4xx_wwdg.o
 .debug_aranges
                0x00000000       0x58 ..\obj\stm32f4xx_wwdg.o
 .debug_ranges  0x00000000       0x48 ..\obj\stm32f4xx_wwdg.o
 .debug_line    0x00000000      0x27f ..\obj\stm32f4xx_wwdg.o
 .debug_str     0x00000000      0x2ab ..\obj\stm32f4xx_wwdg.o
 .comment       0x00000000       0x71 ..\obj\stm32f4xx_wwdg.o
 .ARM.attributes
                0x00000000       0x39 ..\obj\stm32f4xx_wwdg.o
 .debug_frame   0x00000000       0xe8 ..\obj\stm32f4xx_wwdg.o
 .text          0x00000000        0x0 ..\obj\stm32f4xx_hash_md5.o
 .data          0x00000000        0x0 ..\obj\stm32f4xx_hash_md5.o
 .bss           0x00000000        0x0 ..\obj\stm32f4xx_hash_md5.o
 .text.HASH_MD5
                0x00000000      0x10c ..\obj\stm32f4xx_hash_md5.o
 .text.HMAC_MD5
                0x00000000      0x200 ..\obj\stm32f4xx_hash_md5.o
 .debug_info    0x00000000      0x454 ..\obj\stm32f4xx_hash_md5.o
 .debug_abbrev  0x00000000      0x171 ..\obj\stm32f4xx_hash_md5.o
 .debug_aranges
                0x00000000       0x28 ..\obj\stm32f4xx_hash_md5.o
 .debug_ranges  0x00000000       0x18 ..\obj\stm32f4xx_hash_md5.o
 .debug_line    0x00000000      0x3af ..\obj\stm32f4xx_hash_md5.o
 .debug_str     0x00000000      0x31f ..\obj\stm32f4xx_hash_md5.o
 .comment       0x00000000       0x71 ..\obj\stm32f4xx_hash_md5.o
 .ARM.attributes
                0x00000000       0x39 ..\obj\stm32f4xx_hash_md5.o
 .debug_frame   0x00000000       0x50 ..\obj\stm32f4xx_hash_md5.o
 .text          0x00000000        0x0 ..\obj\stm32f4xx_dac.o
 .data          0x00000000        0x0 ..\obj\stm32f4xx_dac.o
 .bss           0x00000000        0x0 ..\obj\stm32f4xx_dac.o
 .text.DAC_DeInit
                0x00000000       0x1c ..\obj\stm32f4xx_dac.o
 .text.DAC_Init
                0x00000000       0x64 ..\obj\stm32f4xx_dac.o
 .text.DAC_StructInit
                0x00000000       0x2c ..\obj\stm32f4xx_dac.o
 .text.DAC_Cmd  0x00000000       0x48 ..\obj\stm32f4xx_dac.o
 .text.DAC_SoftwareTriggerCmd
                0x00000000       0x4c ..\obj\stm32f4xx_dac.o
 .text.DAC_DualSoftwareTriggerCmd
                0x00000000       0x38 ..\obj\stm32f4xx_dac.o
 .text.DAC_WaveGenerationCmd
                0x00000000       0x4c ..\obj\stm32f4xx_dac.o
 .text.DAC_SetChannel1Data
                0x00000000       0x34 ..\obj\stm32f4xx_dac.o
 .text.DAC_SetChannel2Data
                0x00000000       0x34 ..\obj\stm32f4xx_dac.o
 .text.DAC_SetDualChannelData
                0x00000000       0x58 ..\obj\stm32f4xx_dac.o
 .text.DAC_GetDataOutputValue
                0x00000000       0x34 ..\obj\stm32f4xx_dac.o
 .text.DAC_DMACmd
                0x00000000       0x4c ..\obj\stm32f4xx_dac.o
 .text.DAC_ITConfig
                0x00000000       0x4c ..\obj\stm32f4xx_dac.o
 .text.DAC_GetFlagStatus
                0x00000000       0x3c ..\obj\stm32f4xx_dac.o
 .text.DAC_ClearFlag
                0x00000000       0x24 ..\obj\stm32f4xx_dac.o
 .text.DAC_GetITStatus
                0x00000000       0x58 ..\obj\stm32f4xx_dac.o
 .text.DAC_ClearITPendingBit
                0x00000000       0x24 ..\obj\stm32f4xx_dac.o
 .debug_info    0x00000000      0x63d ..\obj\stm32f4xx_dac.o
 .debug_abbrev  0x00000000      0x17c ..\obj\stm32f4xx_dac.o
 .debug_aranges
                0x00000000       0xa0 ..\obj\stm32f4xx_dac.o
 .debug_ranges  0x00000000       0x90 ..\obj\stm32f4xx_dac.o
 .debug_line    0x00000000      0x3a5 ..\obj\stm32f4xx_dac.o
 .debug_str     0x00000000      0x487 ..\obj\stm32f4xx_dac.o
 .comment       0x00000000       0x71 ..\obj\stm32f4xx_dac.o
 .ARM.attributes
                0x00000000       0x39 ..\obj\stm32f4xx_dac.o
 .debug_frame   0x00000000      0x1ec ..\obj\stm32f4xx_dac.o
 .text          0x00000000        0x0 ..\obj\sorting.o
 .data          0x00000000        0x0 ..\obj\sorting.o
 .bss           0x00000000        0x0 ..\obj\sorting.o
 .text.rotorTask
                0x00000000       0x14 ..\obj\sorting.o
 .text          0x00000000        0x0 ..\obj\stm32f4xx_ltdc.o
 .data          0x00000000        0x0 ..\obj\stm32f4xx_ltdc.o
 .bss           0x00000000        0x0 ..\obj\stm32f4xx_ltdc.o
 .text.LTDC_DeInit
                0x00000000       0x1c ..\obj\stm32f4xx_ltdc.o
 .text.LTDC_Init
                0x00000000      0x12c ..\obj\stm32f4xx_ltdc.o
 .text.LTDC_StructInit
                0x00000000       0x6c ..\obj\stm32f4xx_ltdc.o
 .text.LTDC_Cmd
                0x00000000       0x38 ..\obj\stm32f4xx_ltdc.o
 .text.LTDC_DitherCmd
                0x00000000       0x38 ..\obj\stm32f4xx_ltdc.o
 .text.LTDC_GetRGBWidth
                0x00000000       0x58 ..\obj\stm32f4xx_ltdc.o
 .text.LTDC_RGBStructInit
                0x00000000       0x24 ..\obj\stm32f4xx_ltdc.o
 .text.LTDC_LIPConfig
                0x00000000       0x1c ..\obj\stm32f4xx_ltdc.o
 .text.LTDC_ReloadConfig
                0x00000000       0x1c ..\obj\stm32f4xx_ltdc.o
 .text.LTDC_LayerInit
                0x00000000      0x134 ..\obj\stm32f4xx_ltdc.o
 .text.LTDC_LayerStructInit
                0x00000000       0x74 ..\obj\stm32f4xx_ltdc.o
 .text.LTDC_LayerCmd
                0x00000000       0x38 ..\obj\stm32f4xx_ltdc.o
 .text.LTDC_GetPosStatus
                0x00000000       0x40 ..\obj\stm32f4xx_ltdc.o
 .text.LTDC_PosStructInit
                0x00000000       0x20 ..\obj\stm32f4xx_ltdc.o
 .text.LTDC_GetCDStatus
                0x00000000       0x30 ..\obj\stm32f4xx_ltdc.o
 .text.LTDC_ColorKeyingConfig
                0x00000000       0x7c ..\obj\stm32f4xx_ltdc.o
 .text.LTDC_ColorKeyingStructInit
                0x00000000       0x24 ..\obj\stm32f4xx_ltdc.o
 .text.LTDC_CLUTCmd
                0x00000000       0x40 ..\obj\stm32f4xx_ltdc.o
 .text.LTDC_CLUTInit
                0x00000000       0x4c ..\obj\stm32f4xx_ltdc.o
 .text.LTDC_CLUTStructInit
                0x00000000       0x2c ..\obj\stm32f4xx_ltdc.o
 .text.LTDC_LayerPosition
                0x00000000       0xdc ..\obj\stm32f4xx_ltdc.o
 .text.LTDC_LayerAlpha
                0x00000000       0x1c ..\obj\stm32f4xx_ltdc.o
 .text.LTDC_LayerAddress
                0x00000000       0x1c ..\obj\stm32f4xx_ltdc.o
 .text.LTDC_LayerSize
                0x00000000       0xcc ..\obj\stm32f4xx_ltdc.o
 .text.LTDC_LayerPixelFormat
                0x00000000       0xc0 ..\obj\stm32f4xx_ltdc.o
 .text.LTDC_ITConfig
                0x00000000       0x3c ..\obj\stm32f4xx_ltdc.o
 .text.LTDC_GetFlagStatus
                0x00000000       0x34 ..\obj\stm32f4xx_ltdc.o
 .text.LTDC_ClearFlag
                0x00000000       0x1c ..\obj\stm32f4xx_ltdc.o
 .text.LTDC_GetITStatus
                0x00000000       0x50 ..\obj\stm32f4xx_ltdc.o
 .text.LTDC_ClearITPendingBit
                0x00000000       0x1c ..\obj\stm32f4xx_ltdc.o
 .debug_info    0x00000000      0xcf8 ..\obj\stm32f4xx_ltdc.o
 .debug_abbrev  0x00000000      0x18e ..\obj\stm32f4xx_ltdc.o
 .debug_aranges
                0x00000000      0x108 ..\obj\stm32f4xx_ltdc.o
 .debug_ranges  0x00000000       0xf8 ..\obj\stm32f4xx_ltdc.o
 .debug_line    0x00000000      0x54f ..\obj\stm32f4xx_ltdc.o
 .debug_str     0x00000000      0xa5c ..\obj\stm32f4xx_ltdc.o
 .comment       0x00000000       0x71 ..\obj\stm32f4xx_ltdc.o
 .ARM.attributes
                0x00000000       0x39 ..\obj\stm32f4xx_ltdc.o
 .debug_frame   0x00000000      0x358 ..\obj\stm32f4xx_ltdc.o
 .text          0x00000000        0x0 ..\obj\os_var.o
 .data          0x00000000        0x0 ..\obj\os_var.o
 .bss           0x00000000        0x0 ..\obj\os_var.o
 .text          0x00000000        0x0 ..\obj\os_msg.o
 .data          0x00000000        0x0 ..\obj\os_msg.o
 .bss           0x00000000        0x0 ..\obj\os_msg.o
 .text.OS_MsgQGet
                0x00000000       0xc0 ..\obj\os_msg.o
 .text.OS_MsgQPut
                0x00000000      0x10c ..\obj\os_msg.o
 .text          0x00000000        0x0 ..\obj\lib_str.o
 .data          0x00000000        0x0 ..\obj\lib_str.o
 .bss           0x00000000        0x0 ..\obj\lib_str.o
 .rodata        0x00000000       0x94 ..\obj\lib_str.o
 .text.Str_Len  0x00000000       0x20 ..\obj\lib_str.o
 .text.Str_Len_N
                0x00000000       0x44 ..\obj\lib_str.o
 .text.Str_Copy
                0x00000000       0x24 ..\obj\lib_str.o
 .text.Str_Copy_N
                0x00000000       0x90 ..\obj\lib_str.o
 .text.Str_Cat  0x00000000       0x24 ..\obj\lib_str.o
 .text.Str_Cat_N
                0x00000000       0xb4 ..\obj\lib_str.o
 .text.Str_Cmp  0x00000000       0x28 ..\obj\lib_str.o
 .text.Str_Cmp_N
                0x00000000      0x118 ..\obj\lib_str.o
 .text.Str_CmpIgnoreCase
                0x00000000       0x28 ..\obj\lib_str.o
 .text.Str_CmpIgnoreCase_N
                0x00000000      0x174 ..\obj\lib_str.o
 .text.Str_Char
                0x00000000       0x28 ..\obj\lib_str.o
 .text.Str_Char_N
                0x00000000       0x8c ..\obj\lib_str.o
 .text.Str_Char_Last
                0x00000000       0x28 ..\obj\lib_str.o
 .text.Str_Char_Last_N
                0x00000000       0x7c ..\obj\lib_str.o
 .text.Str_Char_Replace
                0x00000000       0x30 ..\obj\lib_str.o
 .text.Str_Char_Replace_N
                0x00000000       0x70 ..\obj\lib_str.o
 .text.Str_Str  0x00000000       0x24 ..\obj\lib_str.o
 .text.Str_Str_N
                0x00000000       0xec ..\obj\lib_str.o
 .text.Str_FmtNbr_Int32U
                0x00000000       0x3c ..\obj\lib_str.o
 .text.Str_FmtNbr_Int32S
                0x00000000       0x54 ..\obj\lib_str.o
 .text.Str_ParseNbr_Int32U
                0x00000000       0x2c ..\obj\lib_str.o
 .text.Str_ParseNbr_Int32S
                0x00000000       0x58 ..\obj\lib_str.o
 .text.Str_FmtNbr_Int32
                0x00000000      0x268 ..\obj\lib_str.o
 .text.Str_ParseNbr_Int32
                0x00000000      0x2a0 ..\obj\lib_str.o
 .debug_info    0x00000000      0xd4a ..\obj\lib_str.o
 .debug_abbrev  0x00000000      0x12e ..\obj\lib_str.o
 .debug_aranges
                0x00000000       0xd8 ..\obj\lib_str.o
 .debug_ranges  0x00000000       0xc8 ..\obj\lib_str.o
 .debug_line    0x00000000      0x572 ..\obj\lib_str.o
 .debug_str     0x00000000      0x651 ..\obj\lib_str.o
 .comment       0x00000000       0x71 ..\obj\lib_str.o
 .ARM.attributes
                0x00000000       0x39 ..\obj\lib_str.o
 .debug_frame   0x00000000      0x2f8 ..\obj\lib_str.o
 .text          0x00000000        0x0 ..\obj\stm32f4xx_crc.o
 .data          0x00000000        0x0 ..\obj\stm32f4xx_crc.o
 .bss           0x00000000        0x0 ..\obj\stm32f4xx_crc.o
 .text.CRC_ResetDR
                0x00000000       0x18 ..\obj\stm32f4xx_crc.o
 .text.CRC_CalcCRC
                0x00000000       0x24 ..\obj\stm32f4xx_crc.o
 .text.CRC_CalcBlockCRC
                0x00000000       0x44 ..\obj\stm32f4xx_crc.o
 .text.CRC_GetCRC
                0x00000000       0x18 ..\obj\stm32f4xx_crc.o
 .text.CRC_SetIDRegister
                0x00000000       0x20 ..\obj\stm32f4xx_crc.o
 .text.CRC_GetIDRegister
                0x00000000       0x18 ..\obj\stm32f4xx_crc.o
 .debug_info    0x00000000      0x208 ..\obj\stm32f4xx_crc.o
 .debug_abbrev  0x00000000      0x114 ..\obj\stm32f4xx_crc.o
 .debug_aranges
                0x00000000       0x48 ..\obj\stm32f4xx_crc.o
 .debug_ranges  0x00000000       0x38 ..\obj\stm32f4xx_crc.o
 .debug_line    0x00000000      0x262 ..\obj\stm32f4xx_crc.o
 .debug_str     0x00000000      0x27f ..\obj\stm32f4xx_crc.o
 .comment       0x00000000       0x71 ..\obj\stm32f4xx_crc.o
 .ARM.attributes
                0x00000000       0x39 ..\obj\stm32f4xx_crc.o
 .debug_frame   0x00000000       0xac ..\obj\stm32f4xx_crc.o
 .text          0x00000000        0x0 ..\obj\stm32f4xx_iwdg.o
 .data          0x00000000        0x0 ..\obj\stm32f4xx_iwdg.o
 .bss           0x00000000        0x0 ..\obj\stm32f4xx_iwdg.o
 .text.IWDG_WriteAccessCmd
                0x00000000       0x20 ..\obj\stm32f4xx_iwdg.o
 .text.IWDG_SetPrescaler
                0x00000000       0x20 ..\obj\stm32f4xx_iwdg.o
 .text.IWDG_SetReload
                0x00000000       0x20 ..\obj\stm32f4xx_iwdg.o
 .text.IWDG_ReloadCounter
                0x00000000       0x18 ..\obj\stm32f4xx_iwdg.o
 .text.IWDG_Enable
                0x00000000       0x18 ..\obj\stm32f4xx_iwdg.o
 .text.IWDG_GetFlagStatus
                0x00000000       0x38 ..\obj\stm32f4xx_iwdg.o
 .debug_info    0x00000000      0x20a ..\obj\stm32f4xx_iwdg.o
 .debug_abbrev  0x00000000      0x101 ..\obj\stm32f4xx_iwdg.o
 .debug_aranges
                0x00000000       0x48 ..\obj\stm32f4xx_iwdg.o
 .debug_ranges  0x00000000       0x38 ..\obj\stm32f4xx_iwdg.o
 .debug_line    0x00000000      0x254 ..\obj\stm32f4xx_iwdg.o
 .debug_str     0x00000000      0x2a0 ..\obj\stm32f4xx_iwdg.o
 .comment       0x00000000       0x71 ..\obj\stm32f4xx_iwdg.o
 .ARM.attributes
                0x00000000       0x39 ..\obj\stm32f4xx_iwdg.o
 .debug_frame   0x00000000       0xb0 ..\obj\stm32f4xx_iwdg.o
 .text          0x00000000        0x0 ..\obj\main.o
 .data          0x00000000        0x0 ..\obj\main.o
 .text.initPinmap
                0x00000000       0x70 ..\obj\main.o
 .text.assert_failed
                0x00000000       0x14 ..\obj\main.o
 .text          0x00000000        0x0 ..\obj\stm32f4xx_rcc.o
 .bss           0x00000000        0x0 ..\obj\stm32f4xx_rcc.o
 .text.RCC_AdjustHSICalibrationValue
                0x00000000       0x3c ..\obj\stm32f4xx_rcc.o
 .text.RCC_HSICmd
                0x00000000       0x20 ..\obj\stm32f4xx_rcc.o
 .text.RCC_LSEConfig
                0x00000000       0x40 ..\obj\stm32f4xx_rcc.o
 .text.RCC_LSICmd
                0x00000000       0x20 ..\obj\stm32f4xx_rcc.o
 .text.RCC_PLLI2SConfig
                0x00000000       0x28 ..\obj\stm32f4xx_rcc.o
 .text.RCC_PLLI2SCmd
                0x00000000       0x20 ..\obj\stm32f4xx_rcc.o
 .text.RCC_PLLSAIConfig
                0x00000000       0x30 ..\obj\stm32f4xx_rcc.o
 .text.RCC_PLLSAICmd
                0x00000000       0x20 ..\obj\stm32f4xx_rcc.o
 .text.RCC_ClockSecuritySystemCmd
                0x00000000       0x20 ..\obj\stm32f4xx_rcc.o
 .text.RCC_MCO1Config
                0x00000000       0x3c ..\obj\stm32f4xx_rcc.o
 .text.RCC_MCO2Config
                0x00000000       0x3c ..\obj\stm32f4xx_rcc.o
 .text.RCC_RTCCLKConfig
                0x00000000       0x5c ..\obj\stm32f4xx_rcc.o
 .text.RCC_RTCCLKCmd
                0x00000000       0x20 ..\obj\stm32f4xx_rcc.o
 .text.RCC_BackupResetCmd
                0x00000000       0x20 ..\obj\stm32f4xx_rcc.o
 .text.RCC_I2SCLKConfig
                0x00000000       0x1c ..\obj\stm32f4xx_rcc.o
 .text.RCC_SAIPLLI2SClkDivConfig
                0x00000000       0x3c ..\obj\stm32f4xx_rcc.o
 .text.RCC_SAIPLLSAIClkDivConfig
                0x00000000       0x40 ..\obj\stm32f4xx_rcc.o
 .text.RCC_SAIBlockACLKConfig
                0x00000000       0x3c ..\obj\stm32f4xx_rcc.o
 .text.RCC_SAIBlockBCLKConfig
                0x00000000       0x3c ..\obj\stm32f4xx_rcc.o
 .text.RCC_LTDCCLKDivConfig
                0x00000000       0x3c ..\obj\stm32f4xx_rcc.o
 .text.RCC_TIMCLKPresConfig
                0x00000000       0x1c ..\obj\stm32f4xx_rcc.o
 .text.RCC_AHB2PeriphClockCmd
                0x00000000       0x3c ..\obj\stm32f4xx_rcc.o
 .text.RCC_AHB3PeriphClockCmd
                0x00000000       0x3c ..\obj\stm32f4xx_rcc.o
 .text.RCC_APB1PeriphClockCmd
                0x00000000       0x3c ..\obj\stm32f4xx_rcc.o
 .text.RCC_APB2PeriphClockCmd
                0x00000000       0x3c ..\obj\stm32f4xx_rcc.o
 .text.RCC_AHB1PeriphResetCmd
                0x00000000       0x3c ..\obj\stm32f4xx_rcc.o
 .text.RCC_AHB2PeriphResetCmd
                0x00000000       0x3c ..\obj\stm32f4xx_rcc.o
 .text.RCC_AHB3PeriphResetCmd
                0x00000000       0x3c ..\obj\stm32f4xx_rcc.o
 .text.RCC_APB1PeriphResetCmd
                0x00000000       0x3c ..\obj\stm32f4xx_rcc.o
 .text.RCC_APB2PeriphResetCmd
                0x00000000       0x3c ..\obj\stm32f4xx_rcc.o
 .text.RCC_AHB1PeriphClockLPModeCmd
                0x00000000       0x3c ..\obj\stm32f4xx_rcc.o
 .text.RCC_AHB2PeriphClockLPModeCmd
                0x00000000       0x3c ..\obj\stm32f4xx_rcc.o
 .text.RCC_AHB3PeriphClockLPModeCmd
                0x00000000       0x3c ..\obj\stm32f4xx_rcc.o
 .text.RCC_APB1PeriphClockLPModeCmd
                0x00000000       0x3c ..\obj\stm32f4xx_rcc.o
 .text.RCC_APB2PeriphClockLPModeCmd
                0x00000000       0x3c ..\obj\stm32f4xx_rcc.o
 .text.RCC_ITConfig
                0x00000000       0x48 ..\obj\stm32f4xx_rcc.o
 .text.RCC_ClearFlag
                0x00000000       0x1c ..\obj\stm32f4xx_rcc.o
 .text.RCC_GetITStatus
                0x00000000       0x38 ..\obj\stm32f4xx_rcc.o
 .text.RCC_ClearITPendingBit
                0x00000000       0x20 ..\obj\stm32f4xx_rcc.o
 .text          0x00000000        0x0 ..\obj\serial_drv_stm32.o
 .data          0x00000000        0x0 ..\obj\serial_drv_stm32.o
 .bss           0x00000000        0x0 ..\obj\serial_drv_stm32.o
 .rodata        0x00000000       0x28 ..\obj\serial_drv_stm32.o
 .text.SerialDrv_Init
                0x00000000       0x18 ..\obj\serial_drv_stm32.o
 .text.SerialDrv_Open
                0x00000000      0x1f8 ..\obj\serial_drv_stm32.o
 .text.SerialDrv_Close
                0x00000000       0x58 ..\obj\serial_drv_stm32.o
 .text.SerialDrv_RxStart
                0x00000000       0x38 ..\obj\serial_drv_stm32.o
 .text.SerialDrv_RxStop
                0x00000000       0x38 ..\obj\serial_drv_stm32.o
 .text.SerialDrv_RxOctet
                0x00000000       0x4c ..\obj\serial_drv_stm32.o
 .text.SerialDrv_TxStart
                0x00000000       0x38 ..\obj\serial_drv_stm32.o
 .text.SerialDrv_TxStop
                0x00000000       0x38 ..\obj\serial_drv_stm32.o
 .text.SerialDrv_TxOctet
                0x00000000       0x48 ..\obj\serial_drv_stm32.o
 .text.SerialDrv_ISR_Handler
                0x00000000       0x80 ..\obj\serial_drv_stm32.o
 .debug_info    0x00000000      0x981 ..\obj\serial_drv_stm32.o
 .debug_abbrev  0x00000000      0x18b ..\obj\serial_drv_stm32.o
 .debug_aranges
                0x00000000       0x68 ..\obj\serial_drv_stm32.o
 .debug_ranges  0x00000000       0x58 ..\obj\serial_drv_stm32.o
 .debug_line    0x00000000      0x274 ..\obj\serial_drv_stm32.o
 .debug_str     0x00000000      0x551 ..\obj\serial_drv_stm32.o
 .comment       0x00000000       0x71 ..\obj\serial_drv_stm32.o
 .ARM.attributes
                0x00000000       0x39 ..\obj\serial_drv_stm32.o
 .debug_frame   0x00000000      0x134 ..\obj\serial_drv_stm32.o
 .text          0x00000000        0x0 ..\obj\lib_ascii.o
 .data          0x00000000        0x0 ..\obj\lib_ascii.o
 .bss           0x00000000        0x0 ..\obj\lib_ascii.o
 .text.ASCII_IsAlpha
                0x00000000       0x38 ..\obj\lib_ascii.o
 .text.ASCII_IsAlphaNum
                0x00000000       0x44 ..\obj\lib_ascii.o
 .text.ASCII_IsLower
                0x00000000       0x2c ..\obj\lib_ascii.o
 .text.ASCII_IsUpper
                0x00000000       0x2c ..\obj\lib_ascii.o
 .text.ASCII_IsDig
                0x00000000       0x2c ..\obj\lib_ascii.o
 .text.ASCII_IsDigOct
                0x00000000       0x2c ..\obj\lib_ascii.o
 .text.ASCII_IsDigHex
                0x00000000       0x44 ..\obj\lib_ascii.o
 .text.ASCII_IsBlank
                0x00000000       0x2c ..\obj\lib_ascii.o
 .text.ASCII_IsSpace
                0x00000000       0x44 ..\obj\lib_ascii.o
 .text.ASCII_IsPrint
                0x00000000       0x2c ..\obj\lib_ascii.o
 .text.ASCII_IsGraph
                0x00000000       0x2c ..\obj\lib_ascii.o
 .text.ASCII_IsPunct
                0x00000000       0x74 ..\obj\lib_ascii.o
 .text.ASCII_IsCtrl
                0x00000000       0x34 ..\obj\lib_ascii.o
 .text.ASCII_ToLower
                0x00000000       0x30 ..\obj\lib_ascii.o
 .text.ASCII_ToUpper
                0x00000000       0x30 ..\obj\lib_ascii.o
 .text.ASCII_Cmp
                0x00000000       0x40 ..\obj\lib_ascii.o
 .debug_info    0x00000000      0x41d ..\obj\lib_ascii.o
 .debug_abbrev  0x00000000       0xd2 ..\obj\lib_ascii.o
 .debug_aranges
                0x00000000       0x98 ..\obj\lib_ascii.o
 .debug_ranges  0x00000000       0x88 ..\obj\lib_ascii.o
 .debug_line    0x00000000      0x3cf ..\obj\lib_ascii.o
 .debug_str     0x00000000      0x2c8 ..\obj\lib_ascii.o
 .comment       0x00000000       0x71 ..\obj\lib_ascii.o
 .ARM.attributes
                0x00000000       0x39 ..\obj\lib_ascii.o
 .debug_frame   0x00000000      0x1d4 ..\obj\lib_ascii.o
 .text          0x00000000        0x0 ..\obj\stm32f4xx_adc.o
 .data          0x00000000        0x0 ..\obj\stm32f4xx_adc.o
 .bss           0x00000000        0x0 ..\obj\stm32f4xx_adc.o
 .text.ADC_DeInit
                0x00000000       0x1c ..\obj\stm32f4xx_adc.o
 .text.ADC_Init
                0x00000000       0xa8 ..\obj\stm32f4xx_adc.o
 .text.ADC_StructInit
                0x00000000       0x3c ..\obj\stm32f4xx_adc.o
 .text.ADC_CommonInit
                0x00000000       0x50 ..\obj\stm32f4xx_adc.o
 .text.ADC_CommonStructInit
                0x00000000       0x2c ..\obj\stm32f4xx_adc.o
 .text.ADC_Cmd  0x00000000       0x38 ..\obj\stm32f4xx_adc.o
 .text.ADC_AnalogWatchdogCmd
                0x00000000       0x38 ..\obj\stm32f4xx_adc.o
 .text.ADC_AnalogWatchdogThresholdsConfig
                0x00000000       0x28 ..\obj\stm32f4xx_adc.o
 .text.ADC_AnalogWatchdogSingleChannelConfig
                0x00000000       0x38 ..\obj\stm32f4xx_adc.o
 .text.ADC_TempSensorVrefintCmd
                0x00000000       0x38 ..\obj\stm32f4xx_adc.o
 .text.ADC_VBATCmd
                0x00000000       0x38 ..\obj\stm32f4xx_adc.o
 .text.ADC_RegularChannelConfig
                0x00000000      0x188 ..\obj\stm32f4xx_adc.o
 .text.ADC_SoftwareStartConv
                0x00000000       0x20 ..\obj\stm32f4xx_adc.o
 .text.ADC_GetSoftwareStartConvStatus
                0x00000000       0x30 ..\obj\stm32f4xx_adc.o
 .text.ADC_EOCOnEachRegularChannelCmd
                0x00000000       0x38 ..\obj\stm32f4xx_adc.o
 .text.ADC_ContinuousModeCmd
                0x00000000       0x38 ..\obj\stm32f4xx_adc.o
 .text.ADC_DiscModeChannelCountConfig
                0x00000000       0x44 ..\obj\stm32f4xx_adc.o
 .text.ADC_DiscModeCmd
                0x00000000       0x38 ..\obj\stm32f4xx_adc.o
 .text.ADC_GetConversionValue
                0x00000000       0x1c ..\obj\stm32f4xx_adc.o
 .text.ADC_GetMultiModeConversionValue
                0x00000000       0x18 ..\obj\stm32f4xx_adc.o
 .text.ADC_DMACmd
                0x00000000       0x38 ..\obj\stm32f4xx_adc.o
 .text.ADC_DMARequestAfterLastTransferCmd
                0x00000000       0x38 ..\obj\stm32f4xx_adc.o
 .text.ADC_MultiModeDMARequestAfterLastTransferCmd
                0x00000000       0x38 ..\obj\stm32f4xx_adc.o
 .text.ADC_InjectedChannelConfig
                0x00000000      0x114 ..\obj\stm32f4xx_adc.o
 .text.ADC_InjectedSequencerLengthConfig
                0x00000000       0x44 ..\obj\stm32f4xx_adc.o
 .text.ADC_SetInjectedOffset
                0x00000000       0x30 ..\obj\stm32f4xx_adc.o
 .text.ADC_ExternalTrigInjectedConvConfig
                0x00000000       0x34 ..\obj\stm32f4xx_adc.o
 .text.ADC_ExternalTrigInjectedConvEdgeConfig
                0x00000000       0x34 ..\obj\stm32f4xx_adc.o
 .text.ADC_SoftwareStartInjectedConv
                0x00000000       0x20 ..\obj\stm32f4xx_adc.o
 .text.ADC_GetSoftwareStartInjectedConvCmdStatus
                0x00000000       0x30 ..\obj\stm32f4xx_adc.o
 .text.ADC_AutoInjectedConvCmd
                0x00000000       0x38 ..\obj\stm32f4xx_adc.o
 .text.ADC_InjectedDiscModeCmd
                0x00000000       0x38 ..\obj\stm32f4xx_adc.o
 .text.ADC_GetInjectedConversionValue
                0x00000000       0x30 ..\obj\stm32f4xx_adc.o
 .text.ADC_ITConfig
                0x00000000       0x50 ..\obj\stm32f4xx_adc.o
 .text.ADC_GetFlagStatus
                0x00000000       0x34 ..\obj\stm32f4xx_adc.o
 .text.ADC_ClearFlag
                0x00000000       0x20 ..\obj\stm32f4xx_adc.o
 .text.ADC_GetITStatus
                0x00000000       0x5c ..\obj\stm32f4xx_adc.o
 .text.ADC_ClearITPendingBit
                0x00000000       0x2c ..\obj\stm32f4xx_adc.o
 .debug_info    0x00000000      0xc38 ..\obj\stm32f4xx_adc.o
 .debug_abbrev  0x00000000      0x196 ..\obj\stm32f4xx_adc.o
 .debug_aranges
                0x00000000      0x148 ..\obj\stm32f4xx_adc.o
 .debug_ranges  0x00000000      0x138 ..\obj\stm32f4xx_adc.o
 .debug_line    0x00000000      0x59f ..\obj\stm32f4xx_adc.o
 .debug_str     0x00000000      0x838 ..\obj\stm32f4xx_adc.o
 .comment       0x00000000       0x71 ..\obj\stm32f4xx_adc.o
 .ARM.attributes
                0x00000000       0x39 ..\obj\stm32f4xx_adc.o
 .debug_frame   0x00000000      0x434 ..\obj\stm32f4xx_adc.o
 .text          0x00000000        0x0 ..\obj\os_dbg.o
 .data          0x00000000        0x0 ..\obj\os_dbg.o
 .bss           0x00000000        0x0 ..\obj\os_dbg.o
 .text          0x00000000        0x0 ..\obj\stm32f4xx_dcmi.o
 .data          0x00000000        0x0 ..\obj\stm32f4xx_dcmi.o
 .bss           0x00000000        0x0 ..\obj\stm32f4xx_dcmi.o
 .text.DCMI_DeInit
                0x00000000       0x3c ..\obj\stm32f4xx_dcmi.o
 .text.DCMI_Init
                0x00000000       0x7c ..\obj\stm32f4xx_dcmi.o
 .text.DCMI_StructInit
                0x00000000       0x3c ..\obj\stm32f4xx_dcmi.o
 .text.DCMI_CROPConfig
                0x00000000       0x3c ..\obj\stm32f4xx_dcmi.o
 .text.DCMI_CROPCmd
                0x00000000       0x38 ..\obj\stm32f4xx_dcmi.o
 .text.DCMI_SetEmbeddedSynchroCodes
                0x00000000       0x38 ..\obj\stm32f4xx_dcmi.o
 .text.DCMI_JPEGCmd
                0x00000000       0x38 ..\obj\stm32f4xx_dcmi.o
 .text.DCMI_Cmd
                0x00000000       0x38 ..\obj\stm32f4xx_dcmi.o
 .text.DCMI_CaptureCmd
                0x00000000       0x38 ..\obj\stm32f4xx_dcmi.o
 .text.DCMI_ReadData
                0x00000000       0x18 ..\obj\stm32f4xx_dcmi.o
 .text.DCMI_ITConfig
                0x00000000       0x40 ..\obj\stm32f4xx_dcmi.o
 .text.DCMI_GetFlagStatus
                0x00000000       0x64 ..\obj\stm32f4xx_dcmi.o
 .text.DCMI_ClearFlag
                0x00000000       0x20 ..\obj\stm32f4xx_dcmi.o
 .text.DCMI_GetITStatus
                0x00000000       0x40 ..\obj\stm32f4xx_dcmi.o
 .text.DCMI_ClearITPendingBit
                0x00000000       0x20 ..\obj\stm32f4xx_dcmi.o
 .debug_info    0x00000000      0x54c ..\obj\stm32f4xx_dcmi.o
 .debug_abbrev  0x00000000      0x187 ..\obj\stm32f4xx_dcmi.o
 .debug_aranges
                0x00000000       0x90 ..\obj\stm32f4xx_dcmi.o
 .debug_ranges  0x00000000       0x80 ..\obj\stm32f4xx_dcmi.o
 .debug_line    0x00000000      0x38c ..\obj\stm32f4xx_dcmi.o
 .debug_str     0x00000000      0x50d ..\obj\stm32f4xx_dcmi.o
 .comment       0x00000000       0x71 ..\obj\stm32f4xx_dcmi.o
 .ARM.attributes
                0x00000000       0x39 ..\obj\stm32f4xx_dcmi.o
 .debug_frame   0x00000000      0x1ac ..\obj\stm32f4xx_dcmi.o
 .text          0x00000000        0x0 ..\obj\serial_line_tty.o
 .data          0x00000000        0x0 ..\obj\serial_line_tty.o
 .bss           0x00000000        0x4 ..\obj\serial_line_tty.o
 .rodata        0x00000000       0x10 ..\obj\serial_line_tty.o
 .text.SerialLine_TTY_EchoRx
                0x00000000       0x48 ..\obj\serial_line_tty.o
 .text.SerialLine_TTY_EchoTx
                0x00000000       0x48 ..\obj\serial_line_tty.o
 .text.SerialLine_Open
                0x00000000       0x6c ..\obj\serial_line_tty.o
 .text.SerialLine_Close
                0x00000000       0x44 ..\obj\serial_line_tty.o
 .text.SerialLine_RdOctet
                0x00000000       0x88 ..\obj\serial_line_tty.o
 .text.SerialLine_WrOctet
                0x00000000       0x74 ..\obj\serial_line_tty.o
 .debug_info    0x00000000      0x836 ..\obj\serial_line_tty.o
 .debug_abbrev  0x00000000      0x1af ..\obj\serial_line_tty.o
 .debug_aranges
                0x00000000       0x48 ..\obj\serial_line_tty.o
 .debug_ranges  0x00000000       0x38 ..\obj\serial_line_tty.o
 .debug_line    0x00000000      0x22b ..\obj\serial_line_tty.o
 .debug_str     0x00000000      0x6f1 ..\obj\serial_line_tty.o
 .comment       0x00000000       0x71 ..\obj\serial_line_tty.o
 .ARM.attributes
                0x00000000       0x39 ..\obj\serial_line_tty.o
 .debug_frame   0x00000000       0xcc ..\obj\serial_line_tty.o
 .text          0x00000000        0x0 ..\obj\os_sem.o
 .data          0x00000000        0x0 ..\obj\os_sem.o
 .bss           0x00000000        0x0 ..\obj\os_sem.o
 .text.OSSemCreate
                0x00000000       0x8c ..\obj\os_sem.o
 .text.OSSemDel
                0x00000000      0x13c ..\obj\os_sem.o
 .text.OSSemPend
                0x00000000      0x1cc ..\obj\os_sem.o
 .text.OSSemPendAbort
                0x00000000      0x104 ..\obj\os_sem.o
 .text.OSSemPost
                0x00000000       0x88 ..\obj\os_sem.o
 .text.OSSemSet
                0x00000000       0x94 ..\obj\os_sem.o
 .rodata        0x00000000        0xc ..\obj\os_sem.o
 .text.OS_SemClr
                0x00000000       0x38 ..\obj\os_sem.o
 .text.OS_SemDbgListAdd
                0x00000000       0x4c ..\obj\os_sem.o
 .text.OS_SemDbgListRemove
                0x00000000       0x70 ..\obj\os_sem.o
 .text.OS_SemPost
                0x00000000       0xe0 ..\obj\os_sem.o
 .text          0x00000000        0x0 ..\obj\serial_buf.o
 .data          0x00000000        0x0 ..\obj\serial_buf.o
 .bss           0x00000000        0x0 ..\obj\serial_buf.o
 .text.SerialBuf_Init
                0x00000000       0x40 ..\obj\serial_buf.o
 .text.SerialBuf_Clr
                0x00000000       0x24 ..\obj\serial_buf.o
 .text.SerialBuf_Rd
                0x00000000       0xe0 ..\obj\serial_buf.o
 .text.SerialBuf_RdOctet
                0x00000000       0x78 ..\obj\serial_buf.o
 .text.SerialBuf_WrOctet
                0x00000000       0x78 ..\obj\serial_buf.o
 .text.SerialBuf_Cmp
                0x00000000       0x8c ..\obj\serial_buf.o
 .text.SerialBuf_IsEmpty
                0x00000000       0x2c ..\obj\serial_buf.o
 .text.SerialBuf_IsFull
                0x00000000       0x28 ..\obj\serial_buf.o
 .text.SerialBuf_Size
                0x00000000       0x1c ..\obj\serial_buf.o
 .text.SerialBuf_DataLen
                0x00000000       0x24 ..\obj\serial_buf.o
 .debug_info    0x00000000      0x46c ..\obj\serial_buf.o
 .debug_abbrev  0x00000000      0x169 ..\obj\serial_buf.o
 .debug_aranges
                0x00000000       0x68 ..\obj\serial_buf.o
 .debug_ranges  0x00000000       0x58 ..\obj\serial_buf.o
 .debug_line    0x00000000      0x22a ..\obj\serial_buf.o
 .debug_str     0x00000000      0x31b ..\obj\serial_buf.o
 .comment       0x00000000       0x71 ..\obj\serial_buf.o
 .ARM.attributes
                0x00000000       0x39 ..\obj\serial_buf.o
 .debug_frame   0x00000000      0x138 ..\obj\serial_buf.o
 .text          0x00000000        0x0 ..\obj\os_prio.o
 .data          0x00000000        0x0 ..\obj\os_prio.o
 .bss           0x00000000        0x0 ..\obj\os_prio.o
 .text          0x00000000        0x0 ..\obj\bsp_os.o
 .data          0x00000000        0x0 ..\obj\bsp_os.o
 .bss           0x00000000        0x0 ..\obj\bsp_os.o
 .text.BSP_OS_SemCreate
                0x00000000       0x30 ..\obj\bsp_os.o
 .text.BSP_OS_SemWait
                0x00000000       0x48 ..\obj\bsp_os.o
 .text.BSP_OS_SemPost
                0x00000000       0x2c ..\obj\bsp_os.o
 .text.BSP_OS_TimeDlyMs
                0x00000000       0x6c ..\obj\bsp_os.o
 .text.BSP_OS_TimeDly
                0x00000000       0x1c ..\obj\bsp_os.o
 .debug_info    0x00000000      0xe29 ..\obj\bsp_os.o
 .debug_abbrev  0x00000000      0x175 ..\obj\bsp_os.o
 .debug_aranges
                0x00000000       0x40 ..\obj\bsp_os.o
 .debug_ranges  0x00000000       0x30 ..\obj\bsp_os.o
 .debug_line    0x00000000      0x2e8 ..\obj\bsp_os.o
 .debug_str     0x00000000     0x135d ..\obj\bsp_os.o
 .comment       0x00000000       0x71 ..\obj\bsp_os.o
 .ARM.attributes
                0x00000000       0x39 ..\obj\bsp_os.o
 .debug_frame   0x00000000       0xb0 ..\obj\bsp_os.o
 .text          0x00000000        0x0 ..\obj\os_core.o
 .data          0x00000000        0x0 ..\obj\os_core.o
 .bss           0x00000000        0x0 ..\obj\os_core.o
 .text.OSVersion
                0x00000000       0x20 ..\obj\os_core.o
 .text.OS_PendAbort
                0x00000000       0xec ..\obj\os_core.o
 .text.OS_PendAbort1
                0x00000000       0x50 ..\obj\os_core.o
 .text.OS_PendListChangePrio
                0x00000000       0x60 ..\obj\os_core.o
 .text.OS_PendListInit
                0x00000000       0x24 ..\obj\os_core.o
 .text.OS_PendListInsertHead
                0x00000000       0x54 ..\obj\os_core.o
 .text.OS_PendObjDel
                0x00000000       0xe0 ..\obj\os_core.o
 .text.OS_PendObjDel1
                0x00000000       0x50 ..\obj\os_core.o
 .text.OS_RdyListMoveHeadToTail
                0x00000000       0x90 ..\obj\os_core.o
 .text          0x00000000        0x0 ..\obj\stm32f4xx_cryp_des.o
 .data          0x00000000        0x0 ..\obj\stm32f4xx_cryp_des.o
 .bss           0x00000000        0x0 ..\obj\stm32f4xx_cryp_des.o
 .text.CRYP_DES_ECB
                0x00000000      0x138 ..\obj\stm32f4xx_cryp_des.o
 .text.CRYP_DES_CBC
                0x00000000      0x168 ..\obj\stm32f4xx_cryp_des.o
 .debug_info    0x00000000      0x4db ..\obj\stm32f4xx_cryp_des.o
 .debug_abbrev  0x00000000      0x13f ..\obj\stm32f4xx_cryp_des.o
 .debug_aranges
                0x00000000       0x28 ..\obj\stm32f4xx_cryp_des.o
 .debug_ranges  0x00000000       0x18 ..\obj\stm32f4xx_cryp_des.o
 .debug_line    0x00000000      0x347 ..\obj\stm32f4xx_cryp_des.o
 .debug_str     0x00000000      0x3ff ..\obj\stm32f4xx_cryp_des.o
 .comment       0x00000000       0x71 ..\obj\stm32f4xx_cryp_des.o
 .ARM.attributes
                0x00000000       0x39 ..\obj\stm32f4xx_cryp_des.o
 .debug_frame   0x00000000       0x50 ..\obj\stm32f4xx_cryp_des.o
 .text          0x00000000        0x0 ..\obj\os_stat.o
 .data          0x00000000        0x0 ..\obj\os_stat.o
 .bss           0x00000000        0x0 ..\obj\os_stat.o
 .text          0x00000000        0x0 ..\obj\stm32f4xx_cryp.o
 .data          0x00000000        0x0 ..\obj\stm32f4xx_cryp.o
 .bss           0x00000000        0x0 ..\obj\stm32f4xx_cryp.o
 .text.CRYP_DeInit
                0x00000000       0x18 ..\obj\stm32f4xx_cryp.o
 .text.CRYP_Init
                0x00000000       0xa4 ..\obj\stm32f4xx_cryp.o
 .text.CRYP_StructInit
                0x00000000       0x2c ..\obj\stm32f4xx_cryp.o
 .text.CRYP_KeyInit
                0x00000000       0x58 ..\obj\stm32f4xx_cryp.o
 .text.CRYP_KeyStructInit
                0x00000000       0x44 ..\obj\stm32f4xx_cryp.o
 .text.CRYP_IVInit
                0x00000000       0x38 ..\obj\stm32f4xx_cryp.o
 .text.CRYP_IVStructInit
                0x00000000       0x2c ..\obj\stm32f4xx_cryp.o
 .text.CRYP_PhaseConfig
                0x00000000       0x38 ..\obj\stm32f4xx_cryp.o
 .text.CRYP_FIFOFlush
                0x00000000       0x1c ..\obj\stm32f4xx_cryp.o
 .text.CRYP_Cmd
                0x00000000       0x38 ..\obj\stm32f4xx_cryp.o
 .text.CRYP_DataIn
                0x00000000       0x1c ..\obj\stm32f4xx_cryp.o
 .text.CRYP_DataOut
                0x00000000       0x18 ..\obj\stm32f4xx_cryp.o
 .text.CRYP_SaveContext
                0x00000000      0x190 ..\obj\stm32f4xx_cryp.o
 .text.CRYP_RestoreContext
                0x00000000      0x114 ..\obj\stm32f4xx_cryp.o
 .text.CRYP_DMACmd
                0x00000000       0x40 ..\obj\stm32f4xx_cryp.o
 .text.CRYP_ITConfig
                0x00000000       0x40 ..\obj\stm32f4xx_cryp.o
 .text.CRYP_GetITStatus
                0x00000000       0x38 ..\obj\stm32f4xx_cryp.o
 .text.CRYP_GetCmdStatus
                0x00000000       0x34 ..\obj\stm32f4xx_cryp.o
 .text.CRYP_GetFlagStatus
                0x00000000       0x50 ..\obj\stm32f4xx_cryp.o
 .debug_info    0x00000000      0x86e ..\obj\stm32f4xx_cryp.o
 .debug_abbrev  0x00000000      0x1a2 ..\obj\stm32f4xx_cryp.o
 .debug_aranges
                0x00000000       0xb0 ..\obj\stm32f4xx_cryp.o
 .debug_ranges  0x00000000       0xa0 ..\obj\stm32f4xx_cryp.o
 .debug_line    0x00000000      0x42d ..\obj\stm32f4xx_cryp.o
 .debug_str     0x00000000      0x6e4 ..\obj\stm32f4xx_cryp.o
 .comment       0x00000000       0x71 ..\obj\stm32f4xx_cryp.o
 .ARM.attributes
                0x00000000       0x39 ..\obj\stm32f4xx_cryp.o
 .debug_frame   0x00000000      0x21c ..\obj\stm32f4xx_cryp.o
 .text          0x00000000        0x0 ..\obj\stm32f4xx_fsmc.o
 .data          0x00000000        0x0 ..\obj\stm32f4xx_fsmc.o
 .bss           0x00000000        0x0 ..\obj\stm32f4xx_fsmc.o
 .text.FSMC_NORSRAMDeInit
                0x00000000       0x58 ..\obj\stm32f4xx_fsmc.o
 .text.FSMC_NORSRAMInit
                0x00000000      0x134 ..\obj\stm32f4xx_fsmc.o
 .text.FSMC_NORSRAMStructInit
                0x00000000       0xd4 ..\obj\stm32f4xx_fsmc.o
 .text.FSMC_NORSRAMCmd
                0x00000000       0x54 ..\obj\stm32f4xx_fsmc.o
 .text.FSMC_NANDDeInit
                0x00000000       0x5c ..\obj\stm32f4xx_fsmc.o
 .text.FSMC_NANDInit
                0x00000000       0xcc ..\obj\stm32f4xx_fsmc.o
 .text.FSMC_NANDStructInit
                0x00000000       0x7c ..\obj\stm32f4xx_fsmc.o
 .text.FSMC_NANDCmd
                0x00000000       0x6c ..\obj\stm32f4xx_fsmc.o
 .text.FSMC_NANDECCCmd
                0x00000000       0x6c ..\obj\stm32f4xx_fsmc.o
 .text.FSMC_GetECC
                0x00000000       0x38 ..\obj\stm32f4xx_fsmc.o
 .text.FSMC_PCCARDDeInit
                0x00000000       0x34 ..\obj\stm32f4xx_fsmc.o
 .text.FSMC_PCCARDInit
                0x00000000       0xac ..\obj\stm32f4xx_fsmc.o
 .text.FSMC_PCCARDStructInit
                0x00000000       0x84 ..\obj\stm32f4xx_fsmc.o
 .text.FSMC_PCCARDCmd
                0x00000000       0x3c ..\obj\stm32f4xx_fsmc.o
 .text.FSMC_ITConfig
                0x00000000       0xa0 ..\obj\stm32f4xx_fsmc.o
 .text.FSMC_GetFlagStatus
                0x00000000       0x64 ..\obj\stm32f4xx_fsmc.o
 .text.FSMC_ClearFlag
                0x00000000       0x5c ..\obj\stm32f4xx_fsmc.o
 .text.FSMC_GetITStatus
                0x00000000       0x80 ..\obj\stm32f4xx_fsmc.o
 .text.FSMC_ClearITPendingBit
                0x00000000       0x64 ..\obj\stm32f4xx_fsmc.o
 .debug_info    0x00000000      0x8f5 ..\obj\stm32f4xx_fsmc.o
 .debug_abbrev  0x00000000      0x170 ..\obj\stm32f4xx_fsmc.o
 .debug_aranges
                0x00000000       0xb0 ..\obj\stm32f4xx_fsmc.o
 .debug_ranges  0x00000000       0xa0 ..\obj\stm32f4xx_fsmc.o
 .debug_line    0x00000000      0x4a1 ..\obj\stm32f4xx_fsmc.o
 .debug_str     0x00000000      0x7be ..\obj\stm32f4xx_fsmc.o
 .comment       0x00000000       0x71 ..\obj\stm32f4xx_fsmc.o
 .ARM.attributes
                0x00000000       0x39 ..\obj\stm32f4xx_fsmc.o
 .debug_frame   0x00000000      0x220 ..\obj\stm32f4xx_fsmc.o
 .text          0x00000000        0x0 ..\obj\serial_os.o
 .data          0x00000000        0x0 ..\obj\serial_os.o
 .bss           0x00000000       0x48 ..\obj\serial_os.o
 .text.SerialOS_Init
                0x00000000       0x4c ..\obj\serial_os.o
 .text.SerialOS_SemCreate
                0x00000000       0x5c ..\obj\serial_os.o
 .text.SerialOS_SemDel
                0x00000000       0x40 ..\obj\serial_os.o
 .text.SerialOS_SemWait
                0x00000000       0x6c ..\obj\serial_os.o
 .text.SerialOS_SemTryLock
                0x00000000       0x30 ..\obj\serial_os.o
 .text.SerialOS_SemSignal
                0x00000000       0x2c ..\obj\serial_os.o
 .debug_info    0x00000000     0x1033 ..\obj\serial_os.o
 .debug_abbrev  0x00000000      0x16e ..\obj\serial_os.o
 .debug_aranges
                0x00000000       0x48 ..\obj\serial_os.o
 .debug_ranges  0x00000000       0x38 ..\obj\serial_os.o
 .debug_line    0x00000000      0x28f ..\obj\serial_os.o
 .debug_str     0x00000000     0x1617 ..\obj\serial_os.o
 .comment       0x00000000       0x71 ..\obj\serial_os.o
 .ARM.attributes
                0x00000000       0x39 ..\obj\serial_os.o
 .debug_frame   0x00000000       0xd0 ..\obj\serial_os.o
 .text          0x00000000        0x0 ..\obj\os_mem.o
 .data          0x00000000        0x0 ..\obj\os_mem.o
 .bss           0x00000000        0x0 ..\obj\os_mem.o
 .text.OSMemCreate
                0x00000000      0x120 ..\obj\os_mem.o
 .text.OSMemGet
                0x00000000       0x70 ..\obj\os_mem.o
 .text.OSMemPut
                0x00000000       0x80 ..\obj\os_mem.o
 .text.OS_MemDbgListAdd
                0x00000000       0x44 ..\obj\os_mem.o
 .text          0x00000000        0x0 ..\obj\bsp_periph.o
 .data          0x00000000        0x0 ..\obj\bsp_periph.o
 .bss           0x00000000        0x0 ..\obj\bsp_periph.o
 .text.BSP_PeriphClkFreqGet
                0x00000000      0x2d4 ..\obj\bsp_periph.o
 .text.BSP_PeriphDis
                0x00000000      0x2f8 ..\obj\bsp_periph.o
 .text          0x00000000        0x0 ..\obj\stm32f4xx_gpio.o
 .data          0x00000000        0x0 ..\obj\stm32f4xx_gpio.o
 .bss           0x00000000        0x0 ..\obj\stm32f4xx_gpio.o
 .text.GPIO_DeInit
                0x00000000      0x164 ..\obj\stm32f4xx_gpio.o
 .text.GPIO_StructInit
                0x00000000       0x34 ..\obj\stm32f4xx_gpio.o
 .text.GPIO_PinLockConfig
                0x00000000       0x44 ..\obj\stm32f4xx_gpio.o
 .text.GPIO_ReadInputDataBit
                0x00000000       0x34 ..\obj\stm32f4xx_gpio.o
 .text.GPIO_ReadInputData
                0x00000000       0x1c ..\obj\stm32f4xx_gpio.o
 .text.GPIO_ReadOutputDataBit
                0x00000000       0x34 ..\obj\stm32f4xx_gpio.o
 .text.GPIO_ReadOutputData
                0x00000000       0x1c ..\obj\stm32f4xx_gpio.o
 .text.GPIO_SetBits
                0x00000000       0x1c ..\obj\stm32f4xx_gpio.o
 .text.GPIO_ResetBits
                0x00000000       0x1c ..\obj\stm32f4xx_gpio.o
 .text.GPIO_WriteBit
                0x00000000       0x30 ..\obj\stm32f4xx_gpio.o
 .text.GPIO_Write
                0x00000000       0x1c ..\obj\stm32f4xx_gpio.o
 .text.GPIO_ToggleBits
                0x00000000       0x24 ..\obj\stm32f4xx_gpio.o
 .text.GPIO_PinAFConfig
                0x00000000       0x8c ..\obj\stm32f4xx_gpio.o
 .text          0x00000000        0x0 ..\obj\stm32f4xx_flash.o
 .data          0x00000000        0x0 ..\obj\stm32f4xx_flash.o
 .bss           0x00000000        0x0 ..\obj\stm32f4xx_flash.o
 .text.FLASH_InstructionCacheCmd
                0x00000000       0x38 ..\obj\stm32f4xx_flash.o
 .text.FLASH_DataCacheCmd
                0x00000000       0x38 ..\obj\stm32f4xx_flash.o
 .text.FLASH_InstructionCacheReset
                0x00000000       0x1c ..\obj\stm32f4xx_flash.o
 .text.FLASH_DataCacheReset
                0x00000000       0x1c ..\obj\stm32f4xx_flash.o
 .text.FLASH_Unlock
                0x00000000       0x2c ..\obj\stm32f4xx_flash.o
 .text.FLASH_Lock
                0x00000000       0x1c ..\obj\stm32f4xx_flash.o
 .text.FLASH_EraseSector
                0x00000000       0xc0 ..\obj\stm32f4xx_flash.o
 .text.FLASH_EraseAllSectors
                0x00000000       0xa0 ..\obj\stm32f4xx_flash.o
 .text.FLASH_EraseAllBank1Sectors
                0x00000000       0xa0 ..\obj\stm32f4xx_flash.o
 .text.FLASH_EraseAllBank2Sectors
                0x00000000       0xa0 ..\obj\stm32f4xx_flash.o
 .text.FLASH_ProgramDoubleWord
                0x00000000       0x70 ..\obj\stm32f4xx_flash.o
 .text.FLASH_ProgramWord
                0x00000000       0x68 ..\obj\stm32f4xx_flash.o
 .text.FLASH_ProgramHalfWord
                0x00000000       0x6c ..\obj\stm32f4xx_flash.o
 .text.FLASH_ProgramByte
                0x00000000       0x68 ..\obj\stm32f4xx_flash.o
 .text.FLASH_OB_Unlock
                0x00000000       0x30 ..\obj\stm32f4xx_flash.o
 .text.FLASH_OB_Lock
                0x00000000       0x1c ..\obj\stm32f4xx_flash.o
 .text.FLASH_OB_WRPConfig
                0x00000000       0x58 ..\obj\stm32f4xx_flash.o
 .text.FLASH_OB_WRP1Config
                0x00000000       0x58 ..\obj\stm32f4xx_flash.o
 .text.FLASH_OB_PCROPSelectionConfig
                0x00000000       0x34 ..\obj\stm32f4xx_flash.o
 .text.FLASH_OB_PCROPConfig
                0x00000000       0x58 ..\obj\stm32f4xx_flash.o
 .text.FLASH_OB_PCROP1Config
                0x00000000       0x58 ..\obj\stm32f4xx_flash.o
 .text.FLASH_OB_RDPConfig
                0x00000000       0x2c ..\obj\stm32f4xx_flash.o
 .text.FLASH_OB_UserConfig
                0x00000000       0x58 ..\obj\stm32f4xx_flash.o
 .text.FLASH_OB_BootConfig
                0x00000000       0x38 ..\obj\stm32f4xx_flash.o
 .text.FLASH_OB_BORConfig
                0x00000000       0x38 ..\obj\stm32f4xx_flash.o
 .text.FLASH_OB_Launch
                0x00000000       0x30 ..\obj\stm32f4xx_flash.o
 .text.FLASH_OB_GetUser
                0x00000000       0x1c ..\obj\stm32f4xx_flash.o
 .text.FLASH_OB_GetWRP
                0x00000000       0x18 ..\obj\stm32f4xx_flash.o
 .text.FLASH_OB_GetWRP1
                0x00000000       0x18 ..\obj\stm32f4xx_flash.o
 .text.FLASH_OB_GetPCROP
                0x00000000       0x18 ..\obj\stm32f4xx_flash.o
 .text.FLASH_OB_GetPCROP1
                0x00000000       0x18 ..\obj\stm32f4xx_flash.o
 .text.FLASH_OB_GetRDP
                0x00000000       0x30 ..\obj\stm32f4xx_flash.o
 .text.FLASH_OB_GetBOR
                0x00000000       0x20 ..\obj\stm32f4xx_flash.o
 .text.FLASH_ITConfig
                0x00000000       0x3c ..\obj\stm32f4xx_flash.o
 .text.FLASH_GetFlagStatus
                0x00000000       0x34 ..\obj\stm32f4xx_flash.o
 .text.FLASH_ClearFlag
                0x00000000       0x1c ..\obj\stm32f4xx_flash.o
 .text.FLASH_GetStatus
                0x00000000       0x7c ..\obj\stm32f4xx_flash.o
 .text.FLASH_WaitForLastOperation
                0x00000000       0x30 ..\obj\stm32f4xx_flash.o
 .text          0x00000000        0x0 ..\obj\lib_math.o
 .data          0x00000000        0x0 ..\obj\lib_math.o
 .bss           0x00000000        0x0 ..\obj\lib_math.o
 .text.Math_Rand
                0x00000000       0x38 ..\obj\lib_math.o
 .text.Math_RandSeed
                0x00000000       0x30 ..\obj\lib_math.o
 .text          0x00000000        0x0 ..\obj\stm32f4xx_sai.o
 .data          0x00000000        0x0 ..\obj\stm32f4xx_sai.o
 .bss           0x00000000        0x0 ..\obj\stm32f4xx_sai.o
 .text.SAI_DeInit
                0x00000000       0x24 ..\obj\stm32f4xx_sai.o
 .text.SAI_Init
                0x00000000       0x8c ..\obj\stm32f4xx_sai.o
 .text.SAI_FrameInit
                0x00000000       0x58 ..\obj\stm32f4xx_sai.o
 .text.SAI_SlotInit
                0x00000000       0x50 ..\obj\stm32f4xx_sai.o
 .text.SAI_StructInit
                0x00000000       0x50 ..\obj\stm32f4xx_sai.o
 .text.SAI_FrameStructInit
                0x00000000       0x30 ..\obj\stm32f4xx_sai.o
 .text.SAI_SlotStructInit
                0x00000000       0x2c ..\obj\stm32f4xx_sai.o
 .text.SAI_Cmd  0x00000000       0x38 ..\obj\stm32f4xx_sai.o
 .text.SAI_MonoModeConfig
                0x00000000       0x2c ..\obj\stm32f4xx_sai.o
 .text.SAI_TRIStateConfig
                0x00000000       0x2c ..\obj\stm32f4xx_sai.o
 .text.SAI_CompandingModeConfig
                0x00000000       0x2c ..\obj\stm32f4xx_sai.o
 .text.SAI_MuteModeCmd
                0x00000000       0x38 ..\obj\stm32f4xx_sai.o
 .text.SAI_MuteValueConfig
                0x00000000       0x2c ..\obj\stm32f4xx_sai.o
 .text.SAI_MuteFrameCounterConfig
                0x00000000       0x30 ..\obj\stm32f4xx_sai.o
 .text.SAI_FlushFIFO
                0x00000000       0x20 ..\obj\stm32f4xx_sai.o
 .text.SAI_ReceiveData
                0x00000000       0x18 ..\obj\stm32f4xx_sai.o
 .text.SAI_SendData
                0x00000000       0x1c ..\obj\stm32f4xx_sai.o
 .text.SAI_DMACmd
                0x00000000       0x38 ..\obj\stm32f4xx_sai.o
 .text.SAI_ITConfig
                0x00000000       0x3c ..\obj\stm32f4xx_sai.o
 .text.SAI_GetFlagStatus
                0x00000000       0x34 ..\obj\stm32f4xx_sai.o
 .text.SAI_ClearFlag
                0x00000000       0x20 ..\obj\stm32f4xx_sai.o
 .text.SAI_GetITStatus
                0x00000000       0x48 ..\obj\stm32f4xx_sai.o
 .text.SAI_ClearITPendingBit
                0x00000000       0x20 ..\obj\stm32f4xx_sai.o
 .text.SAI_GetCmdStatus
                0x00000000       0x30 ..\obj\stm32f4xx_sai.o
 .text.SAI_GetFIFOStatus
                0x00000000       0x24 ..\obj\stm32f4xx_sai.o
 .debug_info    0x00000000      0x828 ..\obj\stm32f4xx_sai.o
 .debug_abbrev  0x00000000      0x16f ..\obj\stm32f4xx_sai.o
 .debug_aranges
                0x00000000       0xe0 ..\obj\stm32f4xx_sai.o
 .debug_ranges  0x00000000       0xd0 ..\obj\stm32f4xx_sai.o
 .debug_line    0x00000000      0x460 ..\obj\stm32f4xx_sai.o
 .debug_str     0x00000000      0x5ed ..\obj\stm32f4xx_sai.o
 .comment       0x00000000       0x71 ..\obj\stm32f4xx_sai.o
 .ARM.attributes
                0x00000000       0x39 ..\obj\stm32f4xx_sai.o
 .debug_frame   0x00000000      0x2d0 ..\obj\stm32f4xx_sai.o
 .text          0x00000000        0x0 ..\obj\system_stm32f4xx.o
 .data          0x00000000       0x14 ..\obj\system_stm32f4xx.o
 .bss           0x00000000        0x0 ..\obj\system_stm32f4xx.o
 .text.SystemCoreClockUpdate
                0x00000000       0xf8 ..\obj\system_stm32f4xx.o
 .text          0x00000000        0x0 ..\obj\syscalls.o
 .data          0x00000000        0x0 ..\obj\syscalls.o
 .bss           0x00000000        0x4 ..\obj\syscalls.o
 .text._sbrk    0x00000000       0x40 ..\obj\syscalls.o
 .text.link     0x00000000       0x1c ..\obj\syscalls.o
 .text._close   0x00000000       0x18 ..\obj\syscalls.o
 .text._fstat   0x00000000       0x20 ..\obj\syscalls.o
 .text._isatty  0x00000000       0x18 ..\obj\syscalls.o
 .text._lseek   0x00000000       0x1c ..\obj\syscalls.o
 .text._read    0x00000000       0x1c ..\obj\syscalls.o
 .text._write   0x00000000       0x1c ..\obj\syscalls.o
 .text.abort    0x00000000        0x8 ..\obj\syscalls.o
 .debug_info    0x00000000      0x3ee ..\obj\syscalls.o
 .debug_abbrev  0x00000000       0xe2 ..\obj\syscalls.o
 .debug_aranges
                0x00000000       0x60 ..\obj\syscalls.o
 .debug_ranges  0x00000000       0x50 ..\obj\syscalls.o
 .debug_line    0x00000000      0x17e ..\obj\syscalls.o
 .debug_str     0x00000000      0x30a ..\obj\syscalls.o
 .comment       0x00000000       0x71 ..\obj\syscalls.o
 .ARM.attributes
                0x00000000       0x39 ..\obj\syscalls.o
 .debug_frame   0x00000000      0x108 ..\obj\syscalls.o
 .text          0x00000000        0x0 ..\obj\stm32f4xx_dma.o
 .data          0x00000000        0x0 ..\obj\stm32f4xx_dma.o
 .bss           0x00000000        0x0 ..\obj\stm32f4xx_dma.o
 .text.DMA_DeInit
                0x00000000      0x1a4 ..\obj\stm32f4xx_dma.o
 .text.DMA_Init
                0x00000000       0xac ..\obj\stm32f4xx_dma.o
 .text.DMA_StructInit
                0x00000000       0x6c ..\obj\stm32f4xx_dma.o
 .text.DMA_Cmd  0x00000000       0x38 ..\obj\stm32f4xx_dma.o
 .text.DMA_PeriphIncOffsetSizeConfig
                0x00000000       0x34 ..\obj\stm32f4xx_dma.o
 .text.DMA_FlowControllerConfig
                0x00000000       0x34 ..\obj\stm32f4xx_dma.o
 .text.DMA_SetCurrDataCounter
                0x00000000       0x1c ..\obj\stm32f4xx_dma.o
 .text.DMA_GetCurrDataCounter
                0x00000000       0x1c ..\obj\stm32f4xx_dma.o
 .text.DMA_DoubleBufferModeConfig
                0x00000000       0x3c ..\obj\stm32f4xx_dma.o
 .text.DMA_DoubleBufferModeCmd
                0x00000000       0x38 ..\obj\stm32f4xx_dma.o
 .text.DMA_MemoryTargetConfig
                0x00000000       0x2c ..\obj\stm32f4xx_dma.o
 .text.DMA_GetCurrentMemoryTarget
                0x00000000       0x30 ..\obj\stm32f4xx_dma.o
 .text.DMA_GetCmdStatus
                0x00000000       0x30 ..\obj\stm32f4xx_dma.o
 .text.DMA_GetFIFOStatus
                0x00000000       0x24 ..\obj\stm32f4xx_dma.o
 .text.DMA_GetFlagStatus
                0x00000000       0x78 ..\obj\stm32f4xx_dma.o
 .text.DMA_ClearFlag
                0x00000000       0x5c ..\obj\stm32f4xx_dma.o
 .text.DMA_ITConfig
                0x00000000       0x74 ..\obj\stm32f4xx_dma.o
 .text.DMA_GetITStatus
                0x00000000       0xb0 ..\obj\stm32f4xx_dma.o
 .text.DMA_ClearITPendingBit
                0x00000000       0x5c ..\obj\stm32f4xx_dma.o
 .debug_info    0x00000000      0x739 ..\obj\stm32f4xx_dma.o
 .debug_abbrev  0x00000000      0x155 ..\obj\stm32f4xx_dma.o
 .debug_aranges
                0x00000000       0xb0 ..\obj\stm32f4xx_dma.o
 .debug_ranges  0x00000000       0xa0 ..\obj\stm32f4xx_dma.o
 .debug_line    0x00000000      0x429 ..\obj\stm32f4xx_dma.o
 .debug_str     0x00000000      0x576 ..\obj\stm32f4xx_dma.o
 .comment       0x00000000       0x71 ..\obj\stm32f4xx_dma.o
 .ARM.attributes
                0x00000000       0x39 ..\obj\stm32f4xx_dma.o
 .debug_frame   0x00000000      0x224 ..\obj\stm32f4xx_dma.o
 .text          0x00000000        0x0 ..\obj\serial_line_probe.o
 .data          0x00000000        0x0 ..\obj\serial_line_probe.o
 .bss           0x00000000        0x4 ..\obj\serial_line_probe.o
 .rodata        0x00000000       0x10 ..\obj\serial_line_probe.o
 .text.SerialLine_Open
                0x00000000       0x74 ..\obj\serial_line_probe.o
 .text.SerialLine_Close
                0x00000000       0x44 ..\obj\serial_line_probe.o
 .text.SerialLine_RdOctet
                0x00000000      0x13c ..\obj\serial_line_probe.o
 .text.SerialLine_WrOctet
                0x00000000      0x190 ..\obj\serial_line_probe.o
 .debug_info    0x00000000      0x7f3 ..\obj\serial_line_probe.o
 .debug_abbrev  0x00000000      0x186 ..\obj\serial_line_probe.o
 .debug_aranges
                0x00000000       0x38 ..\obj\serial_line_probe.o
 .debug_ranges  0x00000000       0x28 ..\obj\serial_line_probe.o
 .debug_line    0x00000000      0x257 ..\obj\serial_line_probe.o
 .debug_str     0x00000000      0x6ec ..\obj\serial_line_probe.o
 .comment       0x00000000       0x71 ..\obj\serial_line_probe.o
 .ARM.attributes
                0x00000000       0x39 ..\obj\serial_line_probe.o
 .debug_frame   0x00000000       0x8c ..\obj\serial_line_probe.o
 .text          0x00000000        0x0 ..\obj\os_cfg_app.o
 .data          0x00000000        0x0 ..\obj\os_cfg_app.o
 .bss           0x00000000        0x0 ..\obj\os_cfg_app.o
 .text          0x00000000        0x0 ..\obj\os_q.o
 .data          0x00000000        0x0 ..\obj\os_q.o
 .bss           0x00000000        0x0 ..\obj\os_q.o
 .text.OSQCreate
                0x00000000       0xa4 ..\obj\os_q.o
 .text.OSQDel   0x00000000      0x13c ..\obj\os_q.o
 .text.OSQFlush
                0x00000000       0x7c ..\obj\os_q.o
 .text.OSQPend  0x00000000      0x1f0 ..\obj\os_q.o
 .text.OSQPendAbort
                0x00000000      0x104 ..\obj\os_q.o
 .text.OSQPost  0x00000000       0xa8 ..\obj\os_q.o
 .rodata        0x00000000        0x8 ..\obj\os_q.o
 .text.OS_QClr  0x00000000       0x44 ..\obj\os_q.o
 .text.OS_QDbgListAdd
                0x00000000       0x4c ..\obj\os_q.o
 .text.OS_QDbgListRemove
                0x00000000       0x70 ..\obj\os_q.o
 .text.OS_QPost
                0x00000000       0xc4 ..\obj\os_q.o
 .text          0x00000000        0x0 ..\obj\os_task.o
 .data          0x00000000        0x0 ..\obj\os_task.o
 .bss           0x00000000        0x0 ..\obj\os_task.o
 .text.OSTaskChangePrio
                0x00000000      0x13c ..\obj\os_task.o
 .text.OSTaskQFlush
                0x00000000       0x6c ..\obj\os_task.o
 .text.OSTaskQPend
                0x00000000      0x1e0 ..\obj\os_task.o
 .text.OSTaskQPendAbort
                0x00000000       0xc0 ..\obj\os_task.o
 .text.OSTaskQPost
                0x00000000       0x58 ..\obj\os_task.o
 .text.OSTaskRegGet
                0x00000000       0x60 ..\obj\os_task.o
 .text.OSTaskRegGetID
                0x00000000       0x58 ..\obj\os_task.o
 .text.OSTaskRegSet
                0x00000000       0x5c ..\obj\os_task.o
 .text.OSTaskSemPendAbort
                0x00000000       0xcc ..\obj\os_task.o
 .text.OSTaskSemSet
                0x00000000       0x60 ..\obj\os_task.o
 .text.OS_TaskQPost
                0x00000000       0xec ..\obj\os_task.o
 .text          0x00000000        0x0 ..\obj\os_app_hooks.o
 .data          0x00000000        0x0 ..\obj\os_app_hooks.o
 .bss           0x00000000        0x0 ..\obj\os_app_hooks.o
 .text.App_OS_SetAllHooks
                0x00000000       0x80 ..\obj\os_app_hooks.o
 .text.App_OS_ClrAllHooks
                0x00000000       0x64 ..\obj\os_app_hooks.o
 .text.App_OS_TaskCreateHook
                0x00000000       0x14 ..\obj\os_app_hooks.o
 .text.App_OS_TaskDelHook
                0x00000000       0x14 ..\obj\os_app_hooks.o
 .text.App_OS_TaskReturnHook
                0x00000000       0x14 ..\obj\os_app_hooks.o
 .text.App_OS_IdleTaskHook
                0x00000000        0xc ..\obj\os_app_hooks.o
 .text.App_OS_InitHook
                0x00000000        0xc ..\obj\os_app_hooks.o
 .text.App_OS_StatTaskHook
                0x00000000        0xc ..\obj\os_app_hooks.o
 .text.App_OS_TaskSwHook
                0x00000000        0xc ..\obj\os_app_hooks.o
 .text.App_OS_TimeTickHook
                0x00000000        0xc ..\obj\os_app_hooks.o
 .debug_info    0x00000000      0x840 ..\obj\os_app_hooks.o
 .debug_abbrev  0x00000000      0x123 ..\obj\os_app_hooks.o
 .debug_aranges
                0x00000000       0x68 ..\obj\os_app_hooks.o
 .debug_ranges  0x00000000       0x58 ..\obj\os_app_hooks.o
 .debug_line    0x00000000      0x208 ..\obj\os_app_hooks.o
 .debug_str     0x00000000      0x73f ..\obj\os_app_hooks.o
 .comment       0x00000000       0x71 ..\obj\os_app_hooks.o
 .ARM.attributes
                0x00000000       0x39 ..\obj\os_app_hooks.o
 .debug_frame   0x00000000      0x11c ..\obj\os_app_hooks.o
 .text          0x00000000       0x14 ..\obj\cstartup.o
 .data          0x00000000        0x0 ..\obj\cstartup.o
 .bss           0x00000000        0x0 ..\obj\cstartup.o
 .text.App_Reserved_ISR
                0x00000000        0x4 ..\obj\cstartup.o
 .text          0x00000000        0x0 ..\obj\os_mutex.o
 .data          0x00000000        0x0 ..\obj\os_mutex.o
 .bss           0x00000000        0x0 ..\obj\os_mutex.o
 .text.OSMutexCreate
                0x00000000       0x9c ..\obj\os_mutex.o
 .text.OSMutexDel
                0x00000000      0x1e0 ..\obj\os_mutex.o
 .text.OSMutexPend
                0x00000000      0x290 ..\obj\os_mutex.o
 .text.OSMutexPendAbort
                0x00000000      0x104 ..\obj\os_mutex.o
 .text.OSMutexPost
                0x00000000      0x190 ..\obj\os_mutex.o
 .rodata        0x00000000        0xc ..\obj\os_mutex.o
 .text.OS_MutexClr
                0x00000000       0x48 ..\obj\os_mutex.o
 .text.OS_MutexDbgListAdd
                0x00000000       0x4c ..\obj\os_mutex.o
 .text.OS_MutexDbgListRemove
                0x00000000       0x70 ..\obj\os_mutex.o
 .text          0x00000000        0x0 ..\obj\stm32f4xx_spi.o
 .data          0x00000000        0x0 ..\obj\stm32f4xx_spi.o
 .bss           0x00000000        0x0 ..\obj\stm32f4xx_spi.o
 .text.SPI_I2S_DeInit
                0x00000000       0xd8 ..\obj\stm32f4xx_spi.o
 .text.SPI_Init
                0x00000000       0x88 ..\obj\stm32f4xx_spi.o
 .text.I2S_Init
                0x00000000      0x1b0 ..\obj\stm32f4xx_spi.o
 .text.SPI_StructInit
                0x00000000       0x48 ..\obj\stm32f4xx_spi.o
 .text.I2S_StructInit
                0x00000000       0x38 ..\obj\stm32f4xx_spi.o
 .text.SPI_Cmd  0x00000000       0x40 ..\obj\stm32f4xx_spi.o
 .text.I2S_Cmd  0x00000000       0x40 ..\obj\stm32f4xx_spi.o
 .text.SPI_DataSizeConfig
                0x00000000       0x38 ..\obj\stm32f4xx_spi.o
 .text.SPI_BiDirectionalLineConfig
                0x00000000       0x40 ..\obj\stm32f4xx_spi.o
 .text.SPI_NSSInternalSoftwareConfig
                0x00000000       0x44 ..\obj\stm32f4xx_spi.o
 .text.SPI_SSOutputCmd
                0x00000000       0x40 ..\obj\stm32f4xx_spi.o
 .text.SPI_TIModeCmd
                0x00000000       0x40 ..\obj\stm32f4xx_spi.o
 .text.I2S_FullDuplexConfig
                0x00000000       0x9c ..\obj\stm32f4xx_spi.o
 .text.SPI_I2S_ReceiveData
                0x00000000       0x1c ..\obj\stm32f4xx_spi.o
 .text.SPI_I2S_SendData
                0x00000000       0x1c ..\obj\stm32f4xx_spi.o
 .text.SPI_CalculateCRC
                0x00000000       0x40 ..\obj\stm32f4xx_spi.o
 .text.SPI_TransmitCRC
                0x00000000       0x24 ..\obj\stm32f4xx_spi.o
 .text.SPI_GetCRC
                0x00000000       0x34 ..\obj\stm32f4xx_spi.o
 .text.SPI_GetCRCPolynomial
                0x00000000       0x1c ..\obj\stm32f4xx_spi.o
 .text.SPI_I2S_DMACmd
                0x00000000       0x48 ..\obj\stm32f4xx_spi.o
 .text.SPI_I2S_ITConfig
                0x00000000       0x60 ..\obj\stm32f4xx_spi.o
 .text.SPI_I2S_GetFlagStatus
                0x00000000       0x38 ..\obj\stm32f4xx_spi.o
 .text.SPI_I2S_ClearFlag
                0x00000000       0x20 ..\obj\stm32f4xx_spi.o
 .text.SPI_I2S_GetITStatus
                0x00000000       0x78 ..\obj\stm32f4xx_spi.o
 .text.SPI_I2S_ClearITPendingBit
                0x00000000       0x34 ..\obj\stm32f4xx_spi.o
 .debug_info    0x00000000      0xb21 ..\obj\stm32f4xx_spi.o
 .debug_abbrev  0x00000000      0x167 ..\obj\stm32f4xx_spi.o
 .debug_aranges
                0x00000000       0xe0 ..\obj\stm32f4xx_spi.o
 .debug_ranges  0x00000000       0xd0 ..\obj\stm32f4xx_spi.o
 .debug_line    0x00000000      0x4a8 ..\obj\stm32f4xx_spi.o
 .debug_str     0x00000000      0x6d1 ..\obj\stm32f4xx_spi.o
 .comment       0x00000000       0x71 ..\obj\stm32f4xx_spi.o
 .ARM.attributes
                0x00000000       0x39 ..\obj\stm32f4xx_spi.o
 .debug_frame   0x00000000      0x2d0 ..\obj\stm32f4xx_spi.o
 .text          0x00000000        0x0 ..\obj\bsp.o
 .data          0x00000000        0x0 ..\obj\bsp.o
 .bss           0x00000000        0x0 ..\obj\bsp.o
 .text.BSP_LED_On
                0x00000000       0x8c ..\obj\bsp.o
 .text.BSP_LED_Off
                0x00000000       0x8c ..\obj\bsp.o
 .text.BSP_LED_Toggle
                0x00000000      0x1e0 ..\obj\bsp.o
 .text.CPU_TS32_to_uSec
                0x00000000       0x58 ..\obj\bsp.o
 .text          0x00000000        0x0 ..\obj\stm32f4xx_i2c.o
 .data          0x00000000        0x0 ..\obj\stm32f4xx_i2c.o
 .bss           0x00000000        0x0 ..\obj\stm32f4xx_i2c.o
 .text.I2C_DeInit
                0x00000000       0x74 ..\obj\stm32f4xx_i2c.o
 .text.I2C_Init
                0x00000000      0x184 ..\obj\stm32f4xx_i2c.o
 .text.I2C_StructInit
                0x00000000       0x3c ..\obj\stm32f4xx_i2c.o
 .text.I2C_Cmd  0x00000000       0x40 ..\obj\stm32f4xx_i2c.o
 .text.I2C_AnalogFilterCmd
                0x00000000       0x40 ..\obj\stm32f4xx_i2c.o
 .text.I2C_DigitalFilterConfig
                0x00000000       0x40 ..\obj\stm32f4xx_i2c.o
 .text.I2C_GenerateSTART
                0x00000000       0x40 ..\obj\stm32f4xx_i2c.o
 .text.I2C_GenerateSTOP
                0x00000000       0x40 ..\obj\stm32f4xx_i2c.o
 .text.I2C_Send7bitAddress
                0x00000000       0x3c ..\obj\stm32f4xx_i2c.o
 .text.I2C_AcknowledgeConfig
                0x00000000       0x40 ..\obj\stm32f4xx_i2c.o
 .text.I2C_OwnAddress2Config
                0x00000000       0x40 ..\obj\stm32f4xx_i2c.o
 .text.I2C_DualAddressCmd
                0x00000000       0x40 ..\obj\stm32f4xx_i2c.o
 .text.I2C_GeneralCallCmd
                0x00000000       0x40 ..\obj\stm32f4xx_i2c.o
 .text.I2C_SoftwareResetCmd
                0x00000000       0x44 ..\obj\stm32f4xx_i2c.o
 .text.I2C_StretchClockCmd
                0x00000000       0x40 ..\obj\stm32f4xx_i2c.o
 .text.I2C_FastModeDutyCycleConfig
                0x00000000       0x40 ..\obj\stm32f4xx_i2c.o
 .text.I2C_NACKPositionConfig
                0x00000000       0x40 ..\obj\stm32f4xx_i2c.o
 .text.I2C_SMBusAlertConfig
                0x00000000       0x40 ..\obj\stm32f4xx_i2c.o
 .text.I2C_ARPCmd
                0x00000000       0x40 ..\obj\stm32f4xx_i2c.o
 .text.I2C_SendData
                0x00000000       0x20 ..\obj\stm32f4xx_i2c.o
 .text.I2C_ReceiveData
                0x00000000       0x1c ..\obj\stm32f4xx_i2c.o
 .text.I2C_TransmitPEC
                0x00000000       0x40 ..\obj\stm32f4xx_i2c.o
 .text.I2C_PECPositionConfig
                0x00000000       0x40 ..\obj\stm32f4xx_i2c.o
 .text.I2C_CalculatePEC
                0x00000000       0x40 ..\obj\stm32f4xx_i2c.o
 .text.I2C_GetPEC
                0x00000000       0x20 ..\obj\stm32f4xx_i2c.o
 .text.I2C_DMACmd
                0x00000000       0x40 ..\obj\stm32f4xx_i2c.o
 .text.I2C_DMALastTransferCmd
                0x00000000       0x40 ..\obj\stm32f4xx_i2c.o
 .text.I2C_ReadRegister
                0x00000000       0x30 ..\obj\stm32f4xx_i2c.o
 .text.I2C_ITConfig
                0x00000000       0x48 ..\obj\stm32f4xx_i2c.o
 .text.I2C_CheckEvent
                0x00000000       0x60 ..\obj\stm32f4xx_i2c.o
 .text.I2C_GetLastEvent
                0x00000000       0x44 ..\obj\stm32f4xx_i2c.o
 .text.I2C_GetFlagStatus
                0x00000000       0x68 ..\obj\stm32f4xx_i2c.o
 .text.I2C_ClearFlag
                0x00000000       0x2c ..\obj\stm32f4xx_i2c.o
 .text.I2C_GetITStatus
                0x00000000       0x5c ..\obj\stm32f4xx_i2c.o
 .text.I2C_ClearITPendingBit
                0x00000000       0x2c ..\obj\stm32f4xx_i2c.o
 .debug_info    0x00000000      0xb87 ..\obj\stm32f4xx_i2c.o
 .debug_abbrev  0x00000000      0x164 ..\obj\stm32f4xx_i2c.o
 .debug_aranges
                0x00000000      0x130 ..\obj\stm32f4xx_i2c.o
 .debug_ranges  0x00000000      0x120 ..\obj\stm32f4xx_i2c.o
 .debug_line    0x00000000      0x552 ..\obj\stm32f4xx_i2c.o
 .debug_str     0x00000000      0x6e6 ..\obj\stm32f4xx_i2c.o
 .comment       0x00000000       0x71 ..\obj\stm32f4xx_i2c.o
 .ARM.attributes
                0x00000000       0x39 ..\obj\stm32f4xx_i2c.o
 .debug_frame   0x00000000      0x3ec ..\obj\stm32f4xx_i2c.o
 .text          0x00000000        0x0 ..\obj\serial_bsp_stm3240x.o
 .data          0x00000000       0x48 ..\obj\serial_bsp_stm3240x.o
 .bss           0x00000000       0x18 ..\obj\serial_bsp_stm3240x.o
 .rodata        0x00000000       0x78 ..\obj\serial_bsp_stm3240x.o
 .text.SerialBSP_STM32_USART1_ClkEn
                0x00000000       0x18 ..\obj\serial_bsp_stm3240x.o
 .text.SerialBSP_STM32_USART2_ClkEn
                0x00000000       0x18 ..\obj\serial_bsp_stm3240x.o
 .text.SerialBSP_STM32_USART3_ClkEn
                0x00000000       0x1c ..\obj\serial_bsp_stm3240x.o
 .text.SerialBSP_STM32_USART4_ClkEn
                0x00000000       0x18 ..\obj\serial_bsp_stm3240x.o
 .text.SerialBSP_STM32_USART5_ClkEn
                0x00000000       0x18 ..\obj\serial_bsp_stm3240x.o
 .text.SerialBSP_STM32_USART6_ClkEn
                0x00000000       0x18 ..\obj\serial_bsp_stm3240x.o
 .text.SerialBSP_STM32_USART1_ClkDis
                0x00000000       0x18 ..\obj\serial_bsp_stm3240x.o
 .text.SerialBSP_STM32_USART2_ClkDis
                0x00000000       0x18 ..\obj\serial_bsp_stm3240x.o
 .text.SerialBSP_STM32_USART3_ClkDis
                0x00000000       0x1c ..\obj\serial_bsp_stm3240x.o
 .text.SerialBSP_STM32_USART4_ClkDis
                0x00000000       0x18 ..\obj\serial_bsp_stm3240x.o
 .text.SerialBSP_STM32_USART5_ClkDis
                0x00000000       0x18 ..\obj\serial_bsp_stm3240x.o
 .text.SerialBSP_STM32_USART6_ClkDis
                0x00000000       0x18 ..\obj\serial_bsp_stm3240x.o
 .text.SerialBSP_STM32_USART1_CfgGPIO
                0x00000000       0x2c ..\obj\serial_bsp_stm3240x.o
 .text.SerialBSP_STM32_USART2_CfgGPIO
                0x00000000       0x2c ..\obj\serial_bsp_stm3240x.o
 .text.SerialBSP_STM32_USART3_CfgGPIO
                0x00000000       0x78 ..\obj\serial_bsp_stm3240x.o
 .text.SerialBSP_STM32_USART4_CfgGPIO
                0x00000000       0x2c ..\obj\serial_bsp_stm3240x.o
 .text.SerialBSP_STM32_USART5_CfgGPIO
                0x00000000       0x2c ..\obj\serial_bsp_stm3240x.o
 .text.SerialBSP_STM32_USART6_CfgGPIO
                0x00000000       0x2c ..\obj\serial_bsp_stm3240x.o
 .text.SerialBSP_STM32_USART1_CfgInt
                0x00000000       0x34 ..\obj\serial_bsp_stm3240x.o
 .text.SerialBSP_STM32_USART2_CfgInt
                0x00000000       0x34 ..\obj\serial_bsp_stm3240x.o
 .text.SerialBSP_STM32_USART3_CfgInt
                0x00000000       0x34 ..\obj\serial_bsp_stm3240x.o
 .text.SerialBSP_STM32_USART4_CfgInt
                0x00000000       0x34 ..\obj\serial_bsp_stm3240x.o
 .text.SerialBSP_STM32_USART5_CfgInt
                0x00000000       0x34 ..\obj\serial_bsp_stm3240x.o
 .text.SerialBSP_STM32_USART6_CfgInt
                0x00000000       0x34 ..\obj\serial_bsp_stm3240x.o
 .text.SerialBSP_STM32_USART1_ClkFreqGet
                0x00000000       0x18 ..\obj\serial_bsp_stm3240x.o
 .text.SerialBSP_STM32_USART2_ClkFreqGet
                0x00000000       0x18 ..\obj\serial_bsp_stm3240x.o
 .text.SerialBSP_STM32_USART3_ClkFreqGet
                0x00000000       0x18 ..\obj\serial_bsp_stm3240x.o
 .text.SerialBSP_STM32_USART4_ClkFreqGet
                0x00000000       0x18 ..\obj\serial_bsp_stm3240x.o
 .text.SerialBSP_STM32_USART5_ClkFreqGet
                0x00000000       0x18 ..\obj\serial_bsp_stm3240x.o
 .text.SerialBSP_STM32_USART6_ClkFreqGet
                0x00000000       0x18 ..\obj\serial_bsp_stm3240x.o
 .text.SerialBSP_STM32_USART1_IntHandler
                0x00000000       0x28 ..\obj\serial_bsp_stm3240x.o
 .text.SerialBSP_STM32_USART2_IntHandler
                0x00000000       0x28 ..\obj\serial_bsp_stm3240x.o
 .text.SerialBSP_STM32_USART3_IntHandler
                0x00000000       0x28 ..\obj\serial_bsp_stm3240x.o
 .text.SerialBSP_STM32_USART4_IntHandler
                0x00000000       0x28 ..\obj\serial_bsp_stm3240x.o
 .text.SerialBSP_STM32_USART5_IntHandler
                0x00000000       0x28 ..\obj\serial_bsp_stm3240x.o
 .text.SerialBSP_STM32_USART6_IntHandler
                0x00000000       0x28 ..\obj\serial_bsp_stm3240x.o
 .debug_info    0x00000000      0xeac ..\obj\serial_bsp_stm3240x.o
 .debug_abbrev  0x00000000      0x1cc ..\obj\serial_bsp_stm3240x.o
 .debug_aranges
                0x00000000      0x138 ..\obj\serial_bsp_stm3240x.o
 .debug_ranges  0x00000000      0x128 ..\obj\serial_bsp_stm3240x.o
 .debug_line    0x00000000      0x637 ..\obj\serial_bsp_stm3240x.o
 .debug_str     0x00000000      0xc92 ..\obj\serial_bsp_stm3240x.o
 .comment       0x00000000       0x71 ..\obj\serial_bsp_stm3240x.o
 .ARM.attributes
                0x00000000       0x39 ..\obj\serial_bsp_stm3240x.o
 .debug_frame   0x00000000      0x454 ..\obj\serial_bsp_stm3240x.o
 .text          0x00000000        0x0 ..\obj\stm32f4xx_rng.o
 .data          0x00000000        0x0 ..\obj\stm32f4xx_rng.o
 .bss           0x00000000        0x0 ..\obj\stm32f4xx_rng.o
 .text.RNG_DeInit
                0x00000000       0x18 ..\obj\stm32f4xx_rng.o
 .text.RNG_Cmd  0x00000000       0x38 ..\obj\stm32f4xx_rng.o
 .text.RNG_GetRandomNumber
                0x00000000       0x18 ..\obj\stm32f4xx_rng.o
 .text.RNG_ITConfig
                0x00000000       0x38 ..\obj\stm32f4xx_rng.o
 .text.RNG_GetFlagStatus
                0x00000000       0x38 ..\obj\stm32f4xx_rng.o
 .text.RNG_ClearFlag
                0x00000000       0x24 ..\obj\stm32f4xx_rng.o
 .text.RNG_GetITStatus
                0x00000000       0x38 ..\obj\stm32f4xx_rng.o
 .text.RNG_ClearITPendingBit
                0x00000000       0x24 ..\obj\stm32f4xx_rng.o
 .debug_info    0x00000000      0x27f ..\obj\stm32f4xx_rng.o
 .debug_abbrev  0x00000000      0x144 ..\obj\stm32f4xx_rng.o
 .debug_aranges
                0x00000000       0x58 ..\obj\stm32f4xx_rng.o
 .debug_ranges  0x00000000       0x48 ..\obj\stm32f4xx_rng.o
 .debug_line    0x00000000      0x280 ..\obj\stm32f4xx_rng.o
 .debug_str     0x00000000      0x2ad ..\obj\stm32f4xx_rng.o
 .comment       0x00000000       0x71 ..\obj\stm32f4xx_rng.o
 .ARM.attributes
                0x00000000       0x39 ..\obj\stm32f4xx_rng.o
 .debug_frame   0x00000000       0xec ..\obj\stm32f4xx_rng.o
 .text          0x00000000        0x0 ..\obj\stm32f4xx_exti.o
 .data          0x00000000        0x0 ..\obj\stm32f4xx_exti.o
 .bss           0x00000000        0x0 ..\obj\stm32f4xx_exti.o
 .text.EXTI_DeInit
                0x00000000       0x34 ..\obj\stm32f4xx_exti.o
 .text.EXTI_Init
                0x00000000       0xdc ..\obj\stm32f4xx_exti.o
 .text.EXTI_StructInit
                0x00000000       0x2c ..\obj\stm32f4xx_exti.o
 .text.EXTI_GenerateSWInterrupt
                0x00000000       0x24 ..\obj\stm32f4xx_exti.o
 .text.EXTI_GetFlagStatus
                0x00000000       0x34 ..\obj\stm32f4xx_exti.o
 .text.EXTI_ClearFlag
                0x00000000       0x1c ..\obj\stm32f4xx_exti.o
 .text.EXTI_GetITStatus
                0x00000000       0x34 ..\obj\stm32f4xx_exti.o
 .text.EXTI_ClearITPendingBit
                0x00000000       0x1c ..\obj\stm32f4xx_exti.o
 .debug_info    0x00000000      0x338 ..\obj\stm32f4xx_exti.o
 .debug_abbrev  0x00000000      0x1a5 ..\obj\stm32f4xx_exti.o
 .debug_aranges
                0x00000000       0x58 ..\obj\stm32f4xx_exti.o
 .debug_ranges  0x00000000       0x48 ..\obj\stm32f4xx_exti.o
 .debug_line    0x00000000      0x2e9 ..\obj\stm32f4xx_exti.o
 .debug_str     0x00000000      0x380 ..\obj\stm32f4xx_exti.o
 .comment       0x00000000       0x71 ..\obj\stm32f4xx_exti.o
 .ARM.attributes
                0x00000000       0x39 ..\obj\stm32f4xx_exti.o
 .debug_frame   0x00000000       0xec ..\obj\stm32f4xx_exti.o
 .text          0x00000000        0x0 ..\obj\os_tmr.o
 .data          0x00000000        0x0 ..\obj\os_tmr.o
 .bss           0x00000000        0x0 ..\obj\os_tmr.o
 .text.OSTmrCreate
                0x00000000       0xec ..\obj\os_tmr.o
 .text.OSTmrDel
                0x00000000      0x108 ..\obj\os_tmr.o
 .text.OSTmrRemainGet
                0x00000000      0x130 ..\obj\os_tmr.o
 .text.OSTmrStart
                0x00000000       0xf4 ..\obj\os_tmr.o
 .text.OSTmrStateGet
                0x00000000       0x8c ..\obj\os_tmr.o
 .text.OSTmrStop
                0x00000000      0x15c ..\obj\os_tmr.o
 .text.OS_TmrClr
                0x00000000       0x64 ..\obj\os_tmr.o
 .text.OS_TmrDbgListAdd
                0x00000000       0x44 ..\obj\os_tmr.o
 .text.OS_TmrDbgListRemove
                0x00000000       0x70 ..\obj\os_tmr.o
 .text          0x00000000        0x0 ..\obj\misc.o
 .data          0x00000000        0x0 ..\obj\misc.o
 .bss           0x00000000        0x0 ..\obj\misc.o
 .text.NVIC_PriorityGroupConfig
                0x00000000       0x24 ..\obj\misc.o
 .text.NVIC_Init
                0x00000000       0xbc ..\obj\misc.o
 .text.NVIC_SetVectorTable
                0x00000000       0x2c ..\obj\misc.o
 .text.NVIC_SystemLPConfig
                0x00000000       0x40 ..\obj\misc.o
 .text.SysTick_CLKSourceConfig
                0x00000000       0x38 ..\obj\misc.o
 .debug_info    0x00000000      0x53d ..\obj\misc.o
 .debug_abbrev  0x00000000      0x145 ..\obj\misc.o
 .debug_aranges
                0x00000000       0x40 ..\obj\misc.o
 .debug_ranges  0x00000000       0x30 ..\obj\misc.o
 .debug_line    0x00000000      0x292 ..\obj\misc.o
 .debug_str     0x00000000      0x402 ..\obj\misc.o
 .comment       0x00000000       0x71 ..\obj\misc.o
 .ARM.attributes
                0x00000000       0x39 ..\obj\misc.o
 .debug_frame   0x00000000       0x9c ..\obj\misc.o
 .text          0x00000000        0x0 ..\obj\serial.o
 .data          0x00000000        0x0 ..\obj\serial.o
 .bss           0x00000000      0x1e4 ..\obj\serial.o
 .text.Serial_Init
                0x00000000       0x9c ..\obj\serial.o
 .text.Serial_DevDrvAdd
                0x00000000      0x294 ..\obj\serial.o
 .text.Serial_IF_IsValid
                0x00000000       0x70 ..\obj\serial.o
 .text.Serial_SetLineDrv
                0x00000000       0xe0 ..\obj\serial.o
 .text.Serial_Open
                0x00000000      0x168 ..\obj\serial.o
 .text.Serial_Close
                0x00000000      0x1c4 ..\obj\serial.o
 .text.Serial_Rd
                0x00000000       0xac ..\obj\serial.o
 .text.Serial_RdAsync
                0x00000000       0x54 ..\obj\serial.o
 .text.Serial_WaitFor
                0x00000000      0x218 ..\obj\serial.o
 .text.Serial_Wr
                0x00000000      0x108 ..\obj\serial.o
 .text.Serial_WrAsync
                0x00000000       0xb4 ..\obj\serial.o
 .text.SerialIF_GetDevPtr
                0x00000000       0x50 ..\obj\serial.o
 .text.SerialIF_Rx
                0x00000000      0x20c ..\obj\serial.o
 .text.SerialIF_Tx
                0x00000000      0x120 ..\obj\serial.o
 .text.SerialIF_TxWrBuf
                0x00000000       0x74 ..\obj\serial.o
 .text.Serial_IF_Clr
                0x00000000       0x44 ..\obj\serial.o
 .text.Serial_IF_RdClr
                0x00000000       0x34 ..\obj\serial.o
 .text.Serial_IF_WrClr
                0x00000000       0x30 ..\obj\serial.o
 .text.Serial_IF_RxReset
                0x00000000       0x24 ..\obj\serial.o
 .text.Serial_IF_RxStart
                0x00000000       0x30 ..\obj\serial.o
 .text.Serial_IF_RxStop
                0x00000000       0x30 ..\obj\serial.o
 .text.Serial_RdHandler
                0x00000000      0x194 ..\obj\serial.o
 .text.Serial_RdStart
                0x00000000       0x28 ..\obj\serial.o
 .text.Serial_RdEnd
                0x00000000       0xc4 ..\obj\serial.o
 .text.Serial_RdCallback
                0x00000000       0x30 ..\obj\serial.o
 .text.Serial_WrBufInsert
                0x00000000       0xac ..\obj\serial.o
 .text.Serial_WrBufRemove
                0x00000000       0x98 ..\obj\serial.o
 .text.Serial_WrBufTxStart
                0x00000000       0x84 ..\obj\serial.o
 .text.Serial_WrStart
                0x00000000       0x7c ..\obj\serial.o
 .text.Serial_WrNext
                0x00000000       0xb0 ..\obj\serial.o
 .text.Serial_WrEnd
                0x00000000       0xe4 ..\obj\serial.o
 .text.Serial_WrCallback
                0x00000000       0x30 ..\obj\serial.o
 .debug_info    0x00000000     0x19f4 ..\obj\serial.o
 .debug_abbrev  0x00000000      0x1d0 ..\obj\serial.o
 .debug_aranges
                0x00000000      0x118 ..\obj\serial.o
 .debug_ranges  0x00000000      0x108 ..\obj\serial.o
 .debug_line    0x00000000      0x73c ..\obj\serial.o
 .debug_str     0x00000000      0xc92 ..\obj\serial.o
 .comment       0x00000000       0x71 ..\obj\serial.o
 .ARM.attributes
                0x00000000       0x39 ..\obj\serial.o
 .debug_frame   0x00000000      0x40c ..\obj\serial.o
 .text          0x00000000        0x0 ..\obj\os_int.o
 .data          0x00000000        0x0 ..\obj\os_int.o
 .bss           0x00000000        0x0 ..\obj\os_int.o
 .debug_info    0x00000000       0x6e ..\obj\os_int.o
 .debug_abbrev  0x00000000       0x24 ..\obj\os_int.o
 .debug_aranges
                0x00000000       0x18 ..\obj\os_int.o
 .debug_line    0x00000000       0x1d ..\obj\os_int.o
 .debug_str     0x00000000      0x175 ..\obj\os_int.o
 .comment       0x00000000       0x71 ..\obj\os_int.o
 .ARM.attributes
                0x00000000       0x39 ..\obj\os_int.o
 .text          0x00000000        0x0 ..\obj\serial_line_dflt.o
 .data          0x00000000        0x0 ..\obj\serial_line_dflt.o
 .bss           0x00000000        0x0 ..\obj\serial_line_dflt.o
 .rodata        0x00000000       0x10 ..\obj\serial_line_dflt.o
 .text.SerialLine_Open
                0x00000000       0x20 ..\obj\serial_line_dflt.o
 .text.SerialLine_Close
                0x00000000       0x1c ..\obj\serial_line_dflt.o
 .text.SerialLine_RdOctet
                0x00000000       0x34 ..\obj\serial_line_dflt.o
 .text.SerialLine_WrOctet
                0x00000000       0x38 ..\obj\serial_line_dflt.o
 .debug_info    0x00000000      0x5f8 ..\obj\serial_line_dflt.o
 .debug_abbrev  0x00000000      0x141 ..\obj\serial_line_dflt.o
 .debug_aranges
                0x00000000       0x38 ..\obj\serial_line_dflt.o
 .debug_ranges  0x00000000       0x28 ..\obj\serial_line_dflt.o
 .debug_line    0x00000000      0x188 ..\obj\serial_line_dflt.o
 .debug_str     0x00000000      0x42b ..\obj\serial_line_dflt.o
 .comment       0x00000000       0x71 ..\obj\serial_line_dflt.o
 .ARM.attributes
                0x00000000       0x39 ..\obj\serial_line_dflt.o
 .debug_frame   0x00000000       0x88 ..\obj\serial_line_dflt.o
 .text          0x00000000        0x0 ..\obj\stm32f4xx_rtc.o
 .data          0x00000000        0x0 ..\obj\stm32f4xx_rtc.o
 .bss           0x00000000        0x0 ..\obj\stm32f4xx_rtc.o
 .text.RTC_DeInit
                0x00000000       0xf4 ..\obj\stm32f4xx_rtc.o
 .text.RTC_Init
                0x00000000       0x78 ..\obj\stm32f4xx_rtc.o
 .text.RTC_StructInit
                0x00000000       0x24 ..\obj\stm32f4xx_rtc.o
 .text.RTC_WriteProtectionCmd
                0x00000000       0x34 ..\obj\stm32f4xx_rtc.o
 .text.RTC_EnterInitMode
                0x00000000       0x74 ..\obj\stm32f4xx_rtc.o
 .text.RTC_ExitInitMode
                0x00000000       0x1c ..\obj\stm32f4xx_rtc.o
 .text.RTC_WaitForSynchro
                0x00000000       0x78 ..\obj\stm32f4xx_rtc.o
 .text.RTC_RefClockCmd
                0x00000000       0x68 ..\obj\stm32f4xx_rtc.o
 .text.RTC_BypassShadowCmd
                0x00000000       0x4c ..\obj\stm32f4xx_rtc.o
 .text.RTC_SetTime
                0x00000000      0x114 ..\obj\stm32f4xx_rtc.o
 .text.RTC_TimeStructInit
                0x00000000       0x2c ..\obj\stm32f4xx_rtc.o
 .text.RTC_GetTime
                0x00000000       0x9c ..\obj\stm32f4xx_rtc.o
 .text.RTC_GetSubSecond
                0x00000000       0x28 ..\obj\stm32f4xx_rtc.o
 .text.RTC_SetDate
                0x00000000      0x120 ..\obj\stm32f4xx_rtc.o
 .text.RTC_DateStructInit
                0x00000000       0x2c ..\obj\stm32f4xx_rtc.o
 .text.RTC_GetDate
                0x00000000       0x9c ..\obj\stm32f4xx_rtc.o
 .text.RTC_SetAlarm
                0x00000000      0x138 ..\obj\stm32f4xx_rtc.o
 .text.RTC_AlarmStructInit
                0x00000000       0x3c ..\obj\stm32f4xx_rtc.o
 .text.RTC_GetAlarm
                0x00000000       0xd8 ..\obj\stm32f4xx_rtc.o
 .text.RTC_AlarmCmd
                0x00000000       0x9c ..\obj\stm32f4xx_rtc.o
 .text.RTC_AlarmSubSecondConfig
                0x00000000       0x50 ..\obj\stm32f4xx_rtc.o
 .text.RTC_GetAlarmSubSecond
                0x00000000       0x3c ..\obj\stm32f4xx_rtc.o
 .text.RTC_WakeUpClockConfig
                0x00000000       0x40 ..\obj\stm32f4xx_rtc.o
 .text.RTC_SetWakeUpCounter
                0x00000000       0x30 ..\obj\stm32f4xx_rtc.o
 .text.RTC_GetWakeUpCounter
                0x00000000       0x18 ..\obj\stm32f4xx_rtc.o
 .text.RTC_WakeUpCmd
                0x00000000       0x94 ..\obj\stm32f4xx_rtc.o
 .text.RTC_DayLightSavingConfig
                0x00000000       0x48 ..\obj\stm32f4xx_rtc.o
 .text.RTC_GetStoreOperation
                0x00000000       0x1c ..\obj\stm32f4xx_rtc.o
 .text.RTC_OutputConfig
                0x00000000       0x48 ..\obj\stm32f4xx_rtc.o
 .text.RTC_CoarseCalibConfig
                0x00000000       0x50 ..\obj\stm32f4xx_rtc.o
 .text.RTC_CoarseCalibCmd
                0x00000000       0x68 ..\obj\stm32f4xx_rtc.o
 .text.RTC_CalibOutputCmd
                0x00000000       0x4c ..\obj\stm32f4xx_rtc.o
 .text.RTC_CalibOutputConfig
                0x00000000       0x40 ..\obj\stm32f4xx_rtc.o
 .text.RTC_SmoothCalibConfig
                0x00000000       0x84 ..\obj\stm32f4xx_rtc.o
 .text.RTC_TimeStampCmd
                0x00000000       0x60 ..\obj\stm32f4xx_rtc.o
 .text.RTC_GetTimeStamp
                0x00000000      0x114 ..\obj\stm32f4xx_rtc.o
 .text.RTC_GetTimeStampSubSecond
                0x00000000       0x18 ..\obj\stm32f4xx_rtc.o
 .text.RTC_TamperTriggerConfig
                0x00000000       0x40 ..\obj\stm32f4xx_rtc.o
 .text.RTC_TamperCmd
                0x00000000       0x3c ..\obj\stm32f4xx_rtc.o
 .text.RTC_TamperFilterConfig
                0x00000000       0x30 ..\obj\stm32f4xx_rtc.o
 .text.RTC_TamperSamplingFreqConfig
                0x00000000       0x30 ..\obj\stm32f4xx_rtc.o
 .text.RTC_TamperPinsPrechargeDuration
                0x00000000       0x30 ..\obj\stm32f4xx_rtc.o
 .text.RTC_TimeStampOnTamperDetectionCmd
                0x00000000       0x38 ..\obj\stm32f4xx_rtc.o
 .text.RTC_TamperPullUpCmd
                0x00000000       0x38 ..\obj\stm32f4xx_rtc.o
 .text.RTC_WriteBackupRegister
                0x00000000       0x30 ..\obj\stm32f4xx_rtc.o
 .text.RTC_ReadBackupRegister
                0x00000000       0x30 ..\obj\stm32f4xx_rtc.o
 .text.RTC_TamperPinSelection
                0x00000000       0x30 ..\obj\stm32f4xx_rtc.o
 .text.RTC_TimeStampPinSelection
                0x00000000       0x30 ..\obj\stm32f4xx_rtc.o
 .text.RTC_OutputTypeConfig
                0x00000000       0x30 ..\obj\stm32f4xx_rtc.o
 .text.RTC_SynchroShiftConfig
                0x00000000       0x9c ..\obj\stm32f4xx_rtc.o
 .text.RTC_ITConfig
                0x00000000       0x78 ..\obj\stm32f4xx_rtc.o
 .text.RTC_GetFlagStatus
                0x00000000       0x44 ..\obj\stm32f4xx_rtc.o
 .text.RTC_ClearFlag
                0x00000000       0x30 ..\obj\stm32f4xx_rtc.o
 .text.RTC_GetITStatus
                0x00000000       0x68 ..\obj\stm32f4xx_rtc.o
 .text.RTC_ClearITPendingBit
                0x00000000       0x38 ..\obj\stm32f4xx_rtc.o
 .text.RTC_ByteToBcd2
                0x00000000       0x3c ..\obj\stm32f4xx_rtc.o
 .text.RTC_Bcd2ToByte
                0x00000000       0x38 ..\obj\stm32f4xx_rtc.o
 .debug_info    0x00000000     0x10df ..\obj\stm32f4xx_rtc.o
 .debug_abbrev  0x00000000      0x1ae ..\obj\stm32f4xx_rtc.o
 .debug_aranges
                0x00000000      0x1e0 ..\obj\stm32f4xx_rtc.o
 .debug_ranges  0x00000000      0x1d0 ..\obj\stm32f4xx_rtc.o
 .debug_line    0x00000000      0x862 ..\obj\stm32f4xx_rtc.o
 .debug_str     0x00000000      0xb7c ..\obj\stm32f4xx_rtc.o
 .comment       0x00000000       0x71 ..\obj\stm32f4xx_rtc.o
 .ARM.attributes
                0x00000000       0x39 ..\obj\stm32f4xx_rtc.o
 .debug_frame   0x00000000      0x670 ..\obj\stm32f4xx_rtc.o
 .text          0x00000000      0x254 ..\obj\lib_mem_a.o
 .data          0x00000000        0x0 ..\obj\lib_mem_a.o
 .bss           0x00000000        0x0 ..\obj\lib_mem_a.o
 .ARM.attributes
                0x00000000       0x25 ..\obj\lib_mem_a.o
 .debug_line    0x00000000      0x127 ..\obj\lib_mem_a.o
 .debug_info    0x00000000       0xc2 ..\obj\lib_mem_a.o
 .debug_abbrev  0x00000000       0x14 ..\obj\lib_mem_a.o
 .debug_aranges
                0x00000000       0x20 ..\obj\lib_mem_a.o
 .text          0x00000000        0x0 ..\obj\stm32f4xx_cryp_tdes.o
 .data          0x00000000        0x0 ..\obj\stm32f4xx_cryp_tdes.o
 .bss           0x00000000        0x0 ..\obj\stm32f4xx_cryp_tdes.o
 .text.CRYP_TDES_ECB
                0x00000000      0x184 ..\obj\stm32f4xx_cryp_tdes.o
 .text.CRYP_TDES_CBC
                0x00000000      0x1d8 ..\obj\stm32f4xx_cryp_tdes.o
 .debug_info    0x00000000      0x5c0 ..\obj\stm32f4xx_cryp_tdes.o
 .debug_abbrev  0x00000000      0x14e ..\obj\stm32f4xx_cryp_tdes.o
 .debug_aranges
                0x00000000       0x28 ..\obj\stm32f4xx_cryp_tdes.o
 .debug_ranges  0x00000000       0x18 ..\obj\stm32f4xx_cryp_tdes.o
 .debug_line    0x00000000      0x3b8 ..\obj\stm32f4xx_cryp_tdes.o
 .debug_str     0x00000000      0x405 ..\obj\stm32f4xx_cryp_tdes.o
 .comment       0x00000000       0x71 ..\obj\stm32f4xx_cryp_tdes.o
 .ARM.attributes
                0x00000000       0x39 ..\obj\stm32f4xx_cryp_tdes.o
 .debug_frame   0x00000000       0x50 ..\obj\stm32f4xx_cryp_tdes.o
 .text          0x00000000        0x0 ..\obj\stm32f4xx_tim.o
 .data          0x00000000        0x0 ..\obj\stm32f4xx_tim.o
 .bss           0x00000000        0x0 ..\obj\stm32f4xx_tim.o
 .text.TIM_DeInit
                0x00000000      0x1bc ..\obj\stm32f4xx_tim.o
 .text.TIM_TimeBaseInit
                0x00000000       0xd4 ..\obj\stm32f4xx_tim.o
 .text.TIM_TimeBaseStructInit
                0x00000000       0x34 ..\obj\stm32f4xx_tim.o
 .text.TIM_PrescalerConfig
                0x00000000       0x28 ..\obj\stm32f4xx_tim.o
 .text.TIM_CounterModeConfig
                0x00000000       0x38 ..\obj\stm32f4xx_tim.o
 .text.TIM_SetCounter
                0x00000000       0x1c ..\obj\stm32f4xx_tim.o
 .text.TIM_SetAutoreload
                0x00000000       0x1c ..\obj\stm32f4xx_tim.o
 .text.TIM_GetCounter
                0x00000000       0x18 ..\obj\stm32f4xx_tim.o
 .text.TIM_GetPrescaler
                0x00000000       0x1c ..\obj\stm32f4xx_tim.o
 .text.TIM_UpdateDisableConfig
                0x00000000       0x40 ..\obj\stm32f4xx_tim.o
 .text.TIM_UpdateRequestConfig
                0x00000000       0x40 ..\obj\stm32f4xx_tim.o
 .text.TIM_ARRPreloadConfig
                0x00000000       0x40 ..\obj\stm32f4xx_tim.o
 .text.TIM_SelectOnePulseMode
                0x00000000       0x38 ..\obj\stm32f4xx_tim.o
 .text.TIM_SetClockDivision
                0x00000000       0x38 ..\obj\stm32f4xx_tim.o
 .text.TIM_Cmd  0x00000000       0x40 ..\obj\stm32f4xx_tim.o
 .text.TIM_OC1Init
                0x00000000       0xf4 ..\obj\stm32f4xx_tim.o
 .text.TIM_OC2Init
                0x00000000      0x110 ..\obj\stm32f4xx_tim.o
 .text.TIM_OC3Init
                0x00000000      0x10c ..\obj\stm32f4xx_tim.o
 .text.TIM_OC4Init
                0x00000000       0xcc ..\obj\stm32f4xx_tim.o
 .text.TIM_OCStructInit
                0x00000000       0x44 ..\obj\stm32f4xx_tim.o
 .text.TIM_SelectOCxM
                0x00000000       0xac ..\obj\stm32f4xx_tim.o
 .text.TIM_SetCompare1
                0x00000000       0x1c ..\obj\stm32f4xx_tim.o
 .text.TIM_SetCompare2
                0x00000000       0x1c ..\obj\stm32f4xx_tim.o
 .text.TIM_SetCompare3
                0x00000000       0x1c ..\obj\stm32f4xx_tim.o
 .text.TIM_SetCompare4
                0x00000000       0x1c ..\obj\stm32f4xx_tim.o
 .text.TIM_ForcedOC1Config
                0x00000000       0x38 ..\obj\stm32f4xx_tim.o
 .text.TIM_ForcedOC2Config
                0x00000000       0x3c ..\obj\stm32f4xx_tim.o
 .text.TIM_ForcedOC3Config
                0x00000000       0x38 ..\obj\stm32f4xx_tim.o
 .text.TIM_ForcedOC4Config
                0x00000000       0x3c ..\obj\stm32f4xx_tim.o
 .text.TIM_OC1PreloadConfig
                0x00000000       0x38 ..\obj\stm32f4xx_tim.o
 .text.TIM_OC2PreloadConfig
                0x00000000       0x3c ..\obj\stm32f4xx_tim.o
 .text.TIM_OC3PreloadConfig
                0x00000000       0x38 ..\obj\stm32f4xx_tim.o
 .text.TIM_OC4PreloadConfig
                0x00000000       0x3c ..\obj\stm32f4xx_tim.o
 .text.TIM_OC1FastConfig
                0x00000000       0x38 ..\obj\stm32f4xx_tim.o
 .text.TIM_OC2FastConfig
                0x00000000       0x3c ..\obj\stm32f4xx_tim.o
 .text.TIM_OC3FastConfig
                0x00000000       0x38 ..\obj\stm32f4xx_tim.o
 .text.TIM_OC4FastConfig
                0x00000000       0x3c ..\obj\stm32f4xx_tim.o
 .text.TIM_ClearOC1Ref
                0x00000000       0x38 ..\obj\stm32f4xx_tim.o
 .text.TIM_ClearOC2Ref
                0x00000000       0x3c ..\obj\stm32f4xx_tim.o
 .text.TIM_ClearOC3Ref
                0x00000000       0x38 ..\obj\stm32f4xx_tim.o
 .text.TIM_ClearOC4Ref
                0x00000000       0x3c ..\obj\stm32f4xx_tim.o
 .text.TIM_OC1PolarityConfig
                0x00000000       0x38 ..\obj\stm32f4xx_tim.o
 .text.TIM_OC1NPolarityConfig
                0x00000000       0x38 ..\obj\stm32f4xx_tim.o
 .text.TIM_OC2PolarityConfig
                0x00000000       0x3c ..\obj\stm32f4xx_tim.o
 .text.TIM_OC2NPolarityConfig
                0x00000000       0x3c ..\obj\stm32f4xx_tim.o
 .text.TIM_OC3PolarityConfig
                0x00000000       0x3c ..\obj\stm32f4xx_tim.o
 .text.TIM_OC3NPolarityConfig
                0x00000000       0x3c ..\obj\stm32f4xx_tim.o
 .text.TIM_OC4PolarityConfig
                0x00000000       0x3c ..\obj\stm32f4xx_tim.o
 .text.TIM_CCxCmd
                0x00000000       0x54 ..\obj\stm32f4xx_tim.o
 .text.TIM_CCxNCmd
                0x00000000       0x54 ..\obj\stm32f4xx_tim.o
 .text.TIM_ICInit
                0x00000000       0xa8 ..\obj\stm32f4xx_tim.o
 .text.TIM_ICStructInit
                0x00000000       0x30 ..\obj\stm32f4xx_tim.o
 .text.TIM_PWMIConfig
                0x00000000       0xb8 ..\obj\stm32f4xx_tim.o
 .text.TIM_GetCapture1
                0x00000000       0x18 ..\obj\stm32f4xx_tim.o
 .text.TIM_GetCapture2
                0x00000000       0x18 ..\obj\stm32f4xx_tim.o
 .text.TIM_GetCapture3
                0x00000000       0x18 ..\obj\stm32f4xx_tim.o
 .text.TIM_GetCapture4
                0x00000000       0x18 ..\obj\stm32f4xx_tim.o
 .text.TIM_SetIC1Prescaler
                0x00000000       0x38 ..\obj\stm32f4xx_tim.o
 .text.TIM_SetIC2Prescaler
                0x00000000       0x3c ..\obj\stm32f4xx_tim.o
 .text.TIM_SetIC3Prescaler
                0x00000000       0x38 ..\obj\stm32f4xx_tim.o
 .text.TIM_SetIC4Prescaler
                0x00000000       0x3c ..\obj\stm32f4xx_tim.o
 .text.TIM_BDTRConfig
                0x00000000       0x50 ..\obj\stm32f4xx_tim.o
 .text.TIM_BDTRStructInit
                0x00000000       0x3c ..\obj\stm32f4xx_tim.o
 .text.TIM_CtrlPWMOutputs
                0x00000000       0x4c ..\obj\stm32f4xx_tim.o
 .text.TIM_SelectCOM
                0x00000000       0x40 ..\obj\stm32f4xx_tim.o
 .text.TIM_CCPreloadControl
                0x00000000       0x40 ..\obj\stm32f4xx_tim.o
 .text.TIM_ITConfig
                0x00000000       0x48 ..\obj\stm32f4xx_tim.o
 .text.TIM_GenerateEvent
                0x00000000       0x1c ..\obj\stm32f4xx_tim.o
 .text.TIM_GetFlagStatus
                0x00000000       0x38 ..\obj\stm32f4xx_tim.o
 .text.TIM_ClearFlag
                0x00000000       0x20 ..\obj\stm32f4xx_tim.o
 .text.TIM_GetITStatus
                0x00000000       0x54 ..\obj\stm32f4xx_tim.o
 .text.TIM_ClearITPendingBit
                0x00000000       0x20 ..\obj\stm32f4xx_tim.o
 .text.TIM_DMAConfig
                0x00000000       0x28 ..\obj\stm32f4xx_tim.o
 .text.TIM_DMACmd
                0x00000000       0x48 ..\obj\stm32f4xx_tim.o
 .text.TIM_SelectCCDMA
                0x00000000       0x40 ..\obj\stm32f4xx_tim.o
 .text.TIM_InternalClockConfig
                0x00000000       0x24 ..\obj\stm32f4xx_tim.o
 .text.TIM_ITRxExternalClockConfig
                0x00000000       0x2c ..\obj\stm32f4xx_tim.o
 .text.TIM_TIxExternalClockConfig
                0x00000000       0x54 ..\obj\stm32f4xx_tim.o
 .text.TIM_ETRClockMode1Config
                0x00000000       0x50 ..\obj\stm32f4xx_tim.o
 .text.TIM_ETRClockMode2Config
                0x00000000       0x30 ..\obj\stm32f4xx_tim.o
 .text.TIM_SelectInputTrigger
                0x00000000       0x38 ..\obj\stm32f4xx_tim.o
 .text.TIM_SelectOutputTrigger
                0x00000000       0x38 ..\obj\stm32f4xx_tim.o
 .text.TIM_SelectSlaveMode
                0x00000000       0x38 ..\obj\stm32f4xx_tim.o
 .text.TIM_SelectMasterSlaveMode
                0x00000000       0x38 ..\obj\stm32f4xx_tim.o
 .text.TIM_ETRConfig
                0x00000000       0x48 ..\obj\stm32f4xx_tim.o
 .text.TIM_EncoderInterfaceConfig
                0x00000000       0x8c ..\obj\stm32f4xx_tim.o
 .text.TIM_SelectHallSensor
                0x00000000       0x40 ..\obj\stm32f4xx_tim.o
 .text.TIM_RemapConfig
                0x00000000       0x20 ..\obj\stm32f4xx_tim.o
 .text.TI1_Config
                0x00000000       0x78 ..\obj\stm32f4xx_tim.o
 .text.TI2_Config
                0x00000000       0x8c ..\obj\stm32f4xx_tim.o
 .text.TI3_Config
                0x00000000       0x84 ..\obj\stm32f4xx_tim.o
 .text.TI4_Config
                0x00000000       0x90 ..\obj\stm32f4xx_tim.o
 .debug_info    0x00000000     0x1c61 ..\obj\stm32f4xx_tim.o
 .debug_abbrev  0x00000000      0x187 ..\obj\stm32f4xx_tim.o
 .debug_aranges
                0x00000000      0x2f8 ..\obj\stm32f4xx_tim.o
 .debug_ranges  0x00000000      0x2e8 ..\obj\stm32f4xx_tim.o
 .debug_line    0x00000000      0xab2 ..\obj\stm32f4xx_tim.o
 .debug_str     0x00000000      0xe04 ..\obj\stm32f4xx_tim.o
 .comment       0x00000000       0x71 ..\obj\stm32f4xx_tim.o
 .ARM.attributes
                0x00000000       0x39 ..\obj\stm32f4xx_tim.o
 .debug_frame   0x00000000      0xa3c ..\obj\stm32f4xx_tim.o
 .text          0x00000000        0x0 ..\obj\stm32f4xx_dbgmcu.o
 .data          0x00000000        0x0 ..\obj\stm32f4xx_dbgmcu.o
 .bss           0x00000000        0x0 ..\obj\stm32f4xx_dbgmcu.o
 .text.DBGMCU_GetREVID
                0x00000000       0x18 ..\obj\stm32f4xx_dbgmcu.o
 .text.DBGMCU_GetDEVID
                0x00000000       0x1c ..\obj\stm32f4xx_dbgmcu.o
 .text.DBGMCU_Config
                0x00000000       0x3c ..\obj\stm32f4xx_dbgmcu.o
 .text.DBGMCU_APB1PeriphConfig
                0x00000000       0x3c ..\obj\stm32f4xx_dbgmcu.o
 .text.DBGMCU_APB2PeriphConfig
                0x00000000       0x3c ..\obj\stm32f4xx_dbgmcu.o
 .debug_info    0x00000000      0x1dc ..\obj\stm32f4xx_dbgmcu.o
 .debug_abbrev  0x00000000       0xde ..\obj\stm32f4xx_dbgmcu.o
 .debug_aranges
                0x00000000       0x40 ..\obj\stm32f4xx_dbgmcu.o
 .debug_ranges  0x00000000       0x30 ..\obj\stm32f4xx_dbgmcu.o
 .debug_line    0x00000000      0x245 ..\obj\stm32f4xx_dbgmcu.o
 .debug_str     0x00000000      0x274 ..\obj\stm32f4xx_dbgmcu.o
 .comment       0x00000000       0x71 ..\obj\stm32f4xx_dbgmcu.o
 .ARM.attributes
                0x00000000       0x39 ..\obj\stm32f4xx_dbgmcu.o
 .debug_frame   0x00000000       0x94 ..\obj\stm32f4xx_dbgmcu.o
 .text          0x00000000       0x2c c:/program files (x86)/gnu tools arm embedded/4.8 2014q2/bin/../lib/gcc/arm-none-eabi/4.8.4/armv7e-m/fpu\libgcc.a(_aeabi_uldivmod.o)
 .data          0x00000000        0x0 c:/program files (x86)/gnu tools arm embedded/4.8 2014q2/bin/../lib/gcc/arm-none-eabi/4.8.4/armv7e-m/fpu\libgcc.a(_aeabi_uldivmod.o)
 .bss           0x00000000        0x0 c:/program files (x86)/gnu tools arm embedded/4.8 2014q2/bin/../lib/gcc/arm-none-eabi/4.8.4/armv7e-m/fpu\libgcc.a(_aeabi_uldivmod.o)
 .ARM.attributes
                0x00000000       0x22 c:/program files (x86)/gnu tools arm embedded/4.8 2014q2/bin/../lib/gcc/arm-none-eabi/4.8.4/armv7e-m/fpu\libgcc.a(_aeabi_uldivmod.o)
 .text          0x00000000       0x60 c:/program files (x86)/gnu tools arm embedded/4.8 2014q2/bin/../lib/gcc/arm-none-eabi/4.8.4/armv7e-m/fpu\libgcc.a(bpabi.o)
 .data          0x00000000        0x0 c:/program files (x86)/gnu tools arm embedded/4.8 2014q2/bin/../lib/gcc/arm-none-eabi/4.8.4/armv7e-m/fpu\libgcc.a(bpabi.o)
 .bss           0x00000000        0x0 c:/program files (x86)/gnu tools arm embedded/4.8 2014q2/bin/../lib/gcc/arm-none-eabi/4.8.4/armv7e-m/fpu\libgcc.a(bpabi.o)
 .ARM.attributes
                0x00000000       0x34 c:/program files (x86)/gnu tools arm embedded/4.8 2014q2/bin/../lib/gcc/arm-none-eabi/4.8.4/armv7e-m/fpu\libgcc.a(bpabi.o)
 .debug_frame   0x00000000       0x50 c:/program files (x86)/gnu tools arm embedded/4.8 2014q2/bin/../lib/gcc/arm-none-eabi/4.8.4/armv7e-m/fpu\libgcc.a(bpabi.o)
 .text          0x00000000        0x4 c:/program files (x86)/gnu tools arm embedded/4.8 2014q2/bin/../lib/gcc/arm-none-eabi/4.8.4/armv7e-m/fpu\libgcc.a(_dvmd_tls.o)
 .data          0x00000000        0x0 c:/program files (x86)/gnu tools arm embedded/4.8 2014q2/bin/../lib/gcc/arm-none-eabi/4.8.4/armv7e-m/fpu\libgcc.a(_dvmd_tls.o)
 .bss           0x00000000        0x0 c:/program files (x86)/gnu tools arm embedded/4.8 2014q2/bin/../lib/gcc/arm-none-eabi/4.8.4/armv7e-m/fpu\libgcc.a(_dvmd_tls.o)
 .ARM.attributes
                0x00000000       0x22 c:/program files (x86)/gnu tools arm embedded/4.8 2014q2/bin/../lib/gcc/arm-none-eabi/4.8.4/armv7e-m/fpu\libgcc.a(_dvmd_tls.o)
 .text          0x00000000      0x298 c:/program files (x86)/gnu tools arm embedded/4.8 2014q2/bin/../lib/gcc/arm-none-eabi/4.8.4/armv7e-m/fpu\libgcc.a(_divdi3.o)
 .data          0x00000000        0x0 c:/program files (x86)/gnu tools arm embedded/4.8 2014q2/bin/../lib/gcc/arm-none-eabi/4.8.4/armv7e-m/fpu\libgcc.a(_divdi3.o)
 .bss           0x00000000        0x0 c:/program files (x86)/gnu tools arm embedded/4.8 2014q2/bin/../lib/gcc/arm-none-eabi/4.8.4/armv7e-m/fpu\libgcc.a(_divdi3.o)
 .ARM.extab     0x00000000        0x0 c:/program files (x86)/gnu tools arm embedded/4.8 2014q2/bin/../lib/gcc/arm-none-eabi/4.8.4/armv7e-m/fpu\libgcc.a(_divdi3.o)
 .ARM.exidx     0x00000000        0x8 c:/program files (x86)/gnu tools arm embedded/4.8 2014q2/bin/../lib/gcc/arm-none-eabi/4.8.4/armv7e-m/fpu\libgcc.a(_divdi3.o)
 .ARM.attributes
                0x00000000       0x34 c:/program files (x86)/gnu tools arm embedded/4.8 2014q2/bin/../lib/gcc/arm-none-eabi/4.8.4/armv7e-m/fpu\libgcc.a(_divdi3.o)
 .debug_frame   0x00000000       0x34 c:/program files (x86)/gnu tools arm embedded/4.8 2014q2/bin/../lib/gcc/arm-none-eabi/4.8.4/armv7e-m/fpu\libgcc.a(_divdi3.o)
 .text          0x00000000      0x284 c:/program files (x86)/gnu tools arm embedded/4.8 2014q2/bin/../lib/gcc/arm-none-eabi/4.8.4/armv7e-m/fpu\libgcc.a(_udivdi3.o)
 .data          0x00000000        0x0 c:/program files (x86)/gnu tools arm embedded/4.8 2014q2/bin/../lib/gcc/arm-none-eabi/4.8.4/armv7e-m/fpu\libgcc.a(_udivdi3.o)
 .bss           0x00000000        0x0 c:/program files (x86)/gnu tools arm embedded/4.8 2014q2/bin/../lib/gcc/arm-none-eabi/4.8.4/armv7e-m/fpu\libgcc.a(_udivdi3.o)
 .ARM.extab     0x00000000        0x0 c:/program files (x86)/gnu tools arm embedded/4.8 2014q2/bin/../lib/gcc/arm-none-eabi/4.8.4/armv7e-m/fpu\libgcc.a(_udivdi3.o)
 .ARM.exidx     0x00000000        0x8 c:/program files (x86)/gnu tools arm embedded/4.8 2014q2/bin/../lib/gcc/arm-none-eabi/4.8.4/armv7e-m/fpu\libgcc.a(_udivdi3.o)
 .ARM.attributes
                0x00000000       0x34 c:/program files (x86)/gnu tools arm embedded/4.8 2014q2/bin/../lib/gcc/arm-none-eabi/4.8.4/armv7e-m/fpu\libgcc.a(_udivdi3.o)
 .debug_frame   0x00000000       0x34 c:/program files (x86)/gnu tools arm embedded/4.8 2014q2/bin/../lib/gcc/arm-none-eabi/4.8.4/armv7e-m/fpu\libgcc.a(_udivdi3.o)
 .text          0x00000000        0x0 ..\..\..\..\..\..\..\..\..\Program Files (x86)\GNU Tools ARM Embedded\4.6 2012q2\arm-none-eabi\lib\armv7e-m\fpu\libg.a(lib_a-exit.o)
 .data          0x00000000        0x0 ..\..\..\..\..\..\..\..\..\Program Files (x86)\GNU Tools ARM Embedded\4.6 2012q2\arm-none-eabi\lib\armv7e-m\fpu\libg.a(lib_a-exit.o)
 .bss           0x00000000        0x0 ..\..\..\..\..\..\..\..\..\Program Files (x86)\GNU Tools ARM Embedded\4.6 2012q2\arm-none-eabi\lib\armv7e-m\fpu\libg.a(lib_a-exit.o)
 .text.exit     0x00000000       0x20 ..\..\..\..\..\..\..\..\..\Program Files (x86)\GNU Tools ARM Embedded\4.6 2012q2\arm-none-eabi\lib\armv7e-m\fpu\libg.a(lib_a-exit.o)
 .ARM.attributes
                0x00000000       0x36 ..\..\..\..\..\..\..\..\..\Program Files (x86)\GNU Tools ARM Embedded\4.6 2012q2\arm-none-eabi\lib\armv7e-m\fpu\libg.a(lib_a-exit.o)
 .debug_frame   0x00000000       0x28 ..\..\..\..\..\..\..\..\..\Program Files (x86)\GNU Tools ARM Embedded\4.6 2012q2\arm-none-eabi\lib\armv7e-m\fpu\libg.a(lib_a-exit.o)
 .text          0x00000000        0x0 ..\..\..\..\..\..\..\..\..\Program Files (x86)\GNU Tools ARM Embedded\4.6 2012q2\arm-none-eabi\lib\armv7e-m\fpu\libg.a(lib_a-impure.o)
 .data          0x00000000        0x0 ..\..\..\..\..\..\..\..\..\Program Files (x86)\GNU Tools ARM Embedded\4.6 2012q2\arm-none-eabi\lib\armv7e-m\fpu\libg.a(lib_a-impure.o)
 .bss           0x00000000        0x0 ..\..\..\..\..\..\..\..\..\Program Files (x86)\GNU Tools ARM Embedded\4.6 2012q2\arm-none-eabi\lib\armv7e-m\fpu\libg.a(lib_a-impure.o)
 .data._impure_ptr
                0x00000000        0x4 ..\..\..\..\..\..\..\..\..\Program Files (x86)\GNU Tools ARM Embedded\4.6 2012q2\arm-none-eabi\lib\armv7e-m\fpu\libg.a(lib_a-impure.o)
 .text          0x00000000        0x0 ..\..\..\..\..\..\..\..\..\Program Files (x86)\GNU Tools ARM Embedded\4.6 2012q2\arm-none-eabi\lib\armv7e-m\fpu\libg.a(lib_a-init.o)
 .data          0x00000000        0x0 ..\..\..\..\..\..\..\..\..\Program Files (x86)\GNU Tools ARM Embedded\4.6 2012q2\arm-none-eabi\lib\armv7e-m\fpu\libg.a(lib_a-init.o)
 .bss           0x00000000        0x0 ..\..\..\..\..\..\..\..\..\Program Files (x86)\GNU Tools ARM Embedded\4.6 2012q2\arm-none-eabi\lib\armv7e-m\fpu\libg.a(lib_a-init.o)
 .text          0x00000000        0x0 ..\..\..\..\..\..\..\..\..\Program Files (x86)\GNU Tools ARM Embedded\4.6 2012q2\arm-none-eabi\lib\armv7e-m\fpu\libg.a(lib_a-memset.o)
 .data          0x00000000        0x0 ..\..\..\..\..\..\..\..\..\Program Files (x86)\GNU Tools ARM Embedded\4.6 2012q2\arm-none-eabi\lib\armv7e-m\fpu\libg.a(lib_a-memset.o)
 .bss           0x00000000        0x0 ..\..\..\..\..\..\..\..\..\Program Files (x86)\GNU Tools ARM Embedded\4.6 2012q2\arm-none-eabi\lib\armv7e-m\fpu\libg.a(lib_a-memset.o)
 .text.memset   0x00000000       0x90 ..\..\..\..\..\..\..\..\..\Program Files (x86)\GNU Tools ARM Embedded\4.6 2012q2\arm-none-eabi\lib\armv7e-m\fpu\libg.a(lib_a-memset.o)
 .ARM.attributes
                0x00000000       0x36 ..\..\..\..\..\..\..\..\..\Program Files (x86)\GNU Tools ARM Embedded\4.6 2012q2\arm-none-eabi\lib\armv7e-m\fpu\libg.a(lib_a-memset.o)
 .debug_frame   0x00000000       0x2c ..\..\..\..\..\..\..\..\..\Program Files (x86)\GNU Tools ARM Embedded\4.6 2012q2\arm-none-eabi\lib\armv7e-m\fpu\libg.a(lib_a-memset.o)
 .text          0x00000000        0x0 ..\..\..\..\..\..\..\..\..\Program Files (x86)\GNU Tools ARM Embedded\4.6 2012q2\arm-none-eabi\lib\armv7e-m\fpu\libg.a(lib_a-__call_atexit.o)
 .data          0x00000000        0x0 ..\..\..\..\..\..\..\..\..\Program Files (x86)\GNU Tools ARM Embedded\4.6 2012q2\arm-none-eabi\lib\armv7e-m\fpu\libg.a(lib_a-__call_atexit.o)
 .bss           0x00000000        0x0 ..\..\..\..\..\..\..\..\..\Program Files (x86)\GNU Tools ARM Embedded\4.6 2012q2\arm-none-eabi\lib\armv7e-m\fpu\libg.a(lib_a-__call_atexit.o)
 .text.__call_exitprocs
                0x00000000       0xd8 ..\..\..\..\..\..\..\..\..\Program Files (x86)\GNU Tools ARM Embedded\4.6 2012q2\arm-none-eabi\lib\armv7e-m\fpu\libg.a(lib_a-__call_atexit.o)
 .text          0x00000000        0x0 ..\..\..\..\..\..\..\..\..\Program Files (x86)\GNU Tools ARM Embedded\4.6 2012q2\arm-none-eabi\lib\armv7e-m\fpu\libg.a(lib_a-atexit.o)
 .data          0x00000000        0x0 ..\..\..\..\..\..\..\..\..\Program Files (x86)\GNU Tools ARM Embedded\4.6 2012q2\arm-none-eabi\lib\armv7e-m\fpu\libg.a(lib_a-atexit.o)
 .bss           0x00000000        0x0 ..\..\..\..\..\..\..\..\..\Program Files (x86)\GNU Tools ARM Embedded\4.6 2012q2\arm-none-eabi\lib\armv7e-m\fpu\libg.a(lib_a-atexit.o)
 .text          0x00000000        0x0 ..\..\..\..\..\..\..\..\..\Program Files (x86)\GNU Tools ARM Embedded\4.6 2012q2\arm-none-eabi\lib\armv7e-m\fpu\libg.a(lib_a-fini.o)
 .data          0x00000000        0x0 ..\..\..\..\..\..\..\..\..\Program Files (x86)\GNU Tools ARM Embedded\4.6 2012q2\arm-none-eabi\lib\armv7e-m\fpu\libg.a(lib_a-fini.o)
 .bss           0x00000000        0x0 ..\..\..\..\..\..\..\..\..\Program Files (x86)\GNU Tools ARM Embedded\4.6 2012q2\arm-none-eabi\lib\armv7e-m\fpu\libg.a(lib_a-fini.o)
 .text          0x00000000        0x0 ..\..\..\..\..\..\..\..\..\Program Files (x86)\GNU Tools ARM Embedded\4.6 2012q2\arm-none-eabi\lib\armv7e-m\fpu\libg.a(lib_a-__atexit.o)
 .data          0x00000000        0x0 ..\..\..\..\..\..\..\..\..\Program Files (x86)\GNU Tools ARM Embedded\4.6 2012q2\arm-none-eabi\lib\armv7e-m\fpu\libg.a(lib_a-__atexit.o)
 .bss           0x00000000        0x0 ..\..\..\..\..\..\..\..\..\Program Files (x86)\GNU Tools ARM Embedded\4.6 2012q2\arm-none-eabi\lib\armv7e-m\fpu\libg.a(lib_a-__atexit.o)
 .text          0x00000000        0x0 c:/program files (x86)/gnu tools arm embedded/4.8 2014q2/bin/../lib/gcc/arm-none-eabi/4.8.4/armv7e-m/fpu/crtend.o
 .data          0x00000000        0x0 c:/program files (x86)/gnu tools arm embedded/4.8 2014q2/bin/../lib/gcc/arm-none-eabi/4.8.4/armv7e-m/fpu/crtend.o
 .bss           0x00000000        0x0 c:/program files (x86)/gnu tools arm embedded/4.8 2014q2/bin/../lib/gcc/arm-none-eabi/4.8.4/armv7e-m/fpu/crtend.o
 .eh_frame      0x00000000        0x4 c:/program files (x86)/gnu tools arm embedded/4.8 2014q2/bin/../lib/gcc/arm-none-eabi/4.8.4/armv7e-m/fpu/crtend.o
 .text          0x00000000        0x0 c:/program files (x86)/gnu tools arm embedded/4.8 2014q2/bin/../lib/gcc/arm-none-eabi/4.8.4/armv7e-m/fpu/crtn.o
 .data          0x00000000        0x0 c:/program files (x86)/gnu tools arm embedded/4.8 2014q2/bin/../lib/gcc/arm-none-eabi/4.8.4/armv7e-m/fpu/crtn.o
 .bss           0x00000000        0x0 c:/program files (x86)/gnu tools arm embedded/4.8 2014q2/bin/../lib/gcc/arm-none-eabi/4.8.4/armv7e-m/fpu/crtn.o

Memory Configuration

Name             Origin             Length             Attributes
rom              0x08000000         0x00100000         xr
ram              0x20000000         0x00020000         xrw
ram1             0x10000000         0x00010000         xrw
*default*        0x00000000         0xffffffff

Linker script and memory map

LOAD c:/program files (x86)/gnu tools arm embedded/4.8 2014q2/bin/../lib/gcc/arm-none-eabi/4.8.4/armv7e-m/fpu/crti.o
LOAD c:/program files (x86)/gnu tools arm embedded/4.8 2014q2/bin/../lib/gcc/arm-none-eabi/4.8.4/armv7e-m/fpu/crtbegin.o
LOAD c:/program files (x86)/gnu tools arm embedded/4.8 2014q2/bin/../lib/gcc/arm-none-eabi/4.8.4/../../../../arm-none-eabi/lib/armv7e-m/fpu/crt0.o
                0x20020000                _eram = 0x20020000

.text           0x08000000     0x50ec
 *(.isr_vector)
 .isr_vector    0x08000000      0x188 ..\obj\cstartup.o
                0x08000000                g_pfnVectors
 *(.text*)
 .text          0x08000188       0x54 c:/program files (x86)/gnu tools arm embedded/4.8 2014q2/bin/../lib/gcc/arm-none-eabi/4.8.4/armv7e-m/fpu/crtbegin.o
 .text          0x080001dc       0x34 ..\obj\cpu_a.o
                0x080001dc                CPU_IntDis
                0x080001e0                CPU_IntEn
                0x080001e4                CPU_SR_Save
                0x080001ec                CPU_SR_Restore
                0x080001f2                CPU_WaitForInt
                0x080001f6                CPU_WaitForExcept
                0x080001fa                CPU_CntLeadZeros
                0x08000200                CPU_CntTrailZeros
                0x0800020a                CPU_RevBits
 .text.OSTimeDly
                0x08000210       0xe4 ..\obj\os_time.o
                0x08000210                OSTimeDly
 .text.OSTimeTick
                0x080002f4       0x54 ..\obj\os_time.o
                0x080002f4                OSTimeTick
 .text          0x08000348       0x9c ..\obj\os_cpu_a.o
                0x08000348                OSStartHighRdy
                0x08000368                OSCtxSw
                0x08000370                OSIntCtxSw
                0x08000378                OS_CPU_PendSVHandler
 .text.BSP_IntDisAll
                0x080003e4        0xc ..\obj\bsp_int.o
                0x080003e4                BSP_IntDisAll
 .text.BSP_IntVectSet
                0x080003f0       0x34 ..\obj\bsp_int.o
                0x080003f0                BSP_IntVectSet
 .text.BSP_IntInit
                0x08000424       0x2c ..\obj\bsp_int.o
                0x08000424                BSP_IntInit
 .text.BSP_IntHandlerWWDG
                0x08000450        0xc ..\obj\bsp_int.o
                0x08000450                BSP_IntHandlerWWDG
 .text.BSP_IntHandlerPVD
                0x0800045c        0xc ..\obj\bsp_int.o
                0x0800045c                BSP_IntHandlerPVD
 .text.BSP_IntHandlerTAMP_STAMP
                0x08000468        0xc ..\obj\bsp_int.o
                0x08000468                BSP_IntHandlerTAMP_STAMP
 .text.BSP_IntHandlerRTC_WKUP
                0x08000474        0xc ..\obj\bsp_int.o
                0x08000474                BSP_IntHandlerRTC_WKUP
 .text.BSP_IntHandlerFLASH
                0x08000480        0xc ..\obj\bsp_int.o
                0x08000480                BSP_IntHandlerFLASH
 .text.BSP_IntHandlerRCC
                0x0800048c        0xc ..\obj\bsp_int.o
                0x0800048c                BSP_IntHandlerRCC
 .text.BSP_IntHandlerEXTI0
                0x08000498        0xc ..\obj\bsp_int.o
                0x08000498                BSP_IntHandlerEXTI0
 .text.BSP_IntHandlerEXTI1
                0x080004a4        0xc ..\obj\bsp_int.o
                0x080004a4                BSP_IntHandlerEXTI1
 .text.BSP_IntHandlerEXTI2
                0x080004b0        0xc ..\obj\bsp_int.o
                0x080004b0                BSP_IntHandlerEXTI2
 .text.BSP_IntHandlerEXTI3
                0x080004bc        0xc ..\obj\bsp_int.o
                0x080004bc                BSP_IntHandlerEXTI3
 .text.BSP_IntHandlerEXTI4
                0x080004c8        0xc ..\obj\bsp_int.o
                0x080004c8                BSP_IntHandlerEXTI4
 .text.BSP_IntHandlerDMA1_CH0
                0x080004d4        0xc ..\obj\bsp_int.o
                0x080004d4                BSP_IntHandlerDMA1_CH0
 .text.BSP_IntHandlerDMA1_CH1
                0x080004e0        0xc ..\obj\bsp_int.o
                0x080004e0                BSP_IntHandlerDMA1_CH1
 .text.BSP_IntHandlerDMA1_CH2
                0x080004ec        0xc ..\obj\bsp_int.o
                0x080004ec                BSP_IntHandlerDMA1_CH2
 .text.BSP_IntHandlerDMA1_CH3
                0x080004f8        0xc ..\obj\bsp_int.o
                0x080004f8                BSP_IntHandlerDMA1_CH3
 .text.BSP_IntHandlerDMA1_CH4
                0x08000504        0xc ..\obj\bsp_int.o
                0x08000504                BSP_IntHandlerDMA1_CH4
 .text.BSP_IntHandlerDMA1_CH5
                0x08000510        0xc ..\obj\bsp_int.o
                0x08000510                BSP_IntHandlerDMA1_CH5
 .text.BSP_IntHandlerDMA1_CH6
                0x0800051c        0xc ..\obj\bsp_int.o
                0x0800051c                BSP_IntHandlerDMA1_CH6
 .text.BSP_IntHandlerADC
                0x08000528        0xc ..\obj\bsp_int.o
                0x08000528                BSP_IntHandlerADC
 .text.BSP_IntHandlerCAN1_TX
                0x08000534        0xc ..\obj\bsp_int.o
                0x08000534                BSP_IntHandlerCAN1_TX
 .text.BSP_IntHandlerCAN1_RX0
                0x08000540        0xc ..\obj\bsp_int.o
                0x08000540                BSP_IntHandlerCAN1_RX0
 .text.BSP_IntHandlerCAN1_RX1
                0x0800054c        0xc ..\obj\bsp_int.o
                0x0800054c                BSP_IntHandlerCAN1_RX1
 .text.BSP_IntHandlerCAN1_SCE
                0x08000558        0xc ..\obj\bsp_int.o
                0x08000558                BSP_IntHandlerCAN1_SCE
 .text.BSP_IntHandlerEXTI9_5
                0x08000564        0xc ..\obj\bsp_int.o
                0x08000564                BSP_IntHandlerEXTI9_5
 .text.BSP_IntHandlerTIM1_BRK_TIM9
                0x08000570        0xc ..\obj\bsp_int.o
                0x08000570                BSP_IntHandlerTIM1_BRK_TIM9
 .text.BSP_IntHandlerTIM1_UP_TIM10
                0x0800057c        0xc ..\obj\bsp_int.o
                0x0800057c                BSP_IntHandlerTIM1_UP_TIM10
 .text.BSP_IntHandlerTIM1_TRG_COM_TIM11
                0x08000588        0xc ..\obj\bsp_int.o
                0x08000588                BSP_IntHandlerTIM1_TRG_COM_TIM11
 .text.BSP_IntHandlerTIM1_CC
                0x08000594        0xc ..\obj\bsp_int.o
                0x08000594                BSP_IntHandlerTIM1_CC
 .text.BSP_IntHandlerTIM2
                0x080005a0        0xc ..\obj\bsp_int.o
                0x080005a0                BSP_IntHandlerTIM2
 .text.BSP_IntHandlerTIM3
                0x080005ac        0xc ..\obj\bsp_int.o
                0x080005ac                BSP_IntHandlerTIM3
 .text.BSP_IntHandlerTIM4
                0x080005b8        0xc ..\obj\bsp_int.o
                0x080005b8                BSP_IntHandlerTIM4
 .text.BSP_IntHandlerI2C1_EV
                0x080005c4        0xc ..\obj\bsp_int.o
                0x080005c4                BSP_IntHandlerI2C1_EV
 .text.BSP_IntHandlerI2C1_ER
                0x080005d0        0xc ..\obj\bsp_int.o
                0x080005d0                BSP_IntHandlerI2C1_ER
 .text.BSP_IntHandlerI2C2_EV
                0x080005dc        0xc ..\obj\bsp_int.o
                0x080005dc                BSP_IntHandlerI2C2_EV
 .text.BSP_IntHandlerI2C2_ER
                0x080005e8        0xc ..\obj\bsp_int.o
                0x080005e8                BSP_IntHandlerI2C2_ER
 .text.BSP_IntHandlerSPI1
                0x080005f4        0xc ..\obj\bsp_int.o
                0x080005f4                BSP_IntHandlerSPI1
 .text.BSP_IntHandlerSPI2
                0x08000600        0xc ..\obj\bsp_int.o
                0x08000600                BSP_IntHandlerSPI2
 .text.BSP_IntHandlerUSART1
                0x0800060c        0xc ..\obj\bsp_int.o
                0x0800060c                BSP_IntHandlerUSART1
 .text.BSP_IntHandlerUSART2
                0x08000618        0xc ..\obj\bsp_int.o
                0x08000618                BSP_IntHandlerUSART2
 .text.BSP_IntHandlerUSART3
                0x08000624        0xc ..\obj\bsp_int.o
                0x08000624                BSP_IntHandlerUSART3
 .text.BSP_IntHandlerEXTI15_10
                0x08000630        0xc ..\obj\bsp_int.o
                0x08000630                BSP_IntHandlerEXTI15_10
 .text.BSP_IntHandlerRTCAlarm
                0x0800063c        0xc ..\obj\bsp_int.o
                0x0800063c                BSP_IntHandlerRTCAlarm
 .text.BSP_IntHandlerOTG_FS_WKUP
                0x08000648        0xc ..\obj\bsp_int.o
                0x08000648                BSP_IntHandlerOTG_FS_WKUP
 .text.BSP_IntHandlerTIM8_BRK_TIM12
                0x08000654        0xc ..\obj\bsp_int.o
                0x08000654                BSP_IntHandlerTIM8_BRK_TIM12
 .text.BSP_IntHandlerTIM8_UP_TIM13
                0x08000660        0xc ..\obj\bsp_int.o
                0x08000660                BSP_IntHandlerTIM8_UP_TIM13
 .text.BSP_IntHandlerTIM8_TRG_COM_TIM14
                0x0800066c        0xc ..\obj\bsp_int.o
                0x0800066c                BSP_IntHandlerTIM8_TRG_COM_TIM14
 .text.BSP_IntHandlerTIM8_CC
                0x08000678        0xc ..\obj\bsp_int.o
                0x08000678                BSP_IntHandlerTIM8_CC
 .text.BSP_IntHandlerDMA1_STREAM7
                0x08000684        0xc ..\obj\bsp_int.o
                0x08000684                BSP_IntHandlerDMA1_STREAM7
 .text.BSP_IntHandlerFSMC
                0x08000690        0xc ..\obj\bsp_int.o
                0x08000690                BSP_IntHandlerFSMC
 .text.BSP_IntHandlerSDIO
                0x0800069c        0xc ..\obj\bsp_int.o
                0x0800069c                BSP_IntHandlerSDIO
 .text.BSP_IntHandlerTIM5
                0x080006a8        0xc ..\obj\bsp_int.o
                0x080006a8                BSP_IntHandlerTIM5
 .text.BSP_IntHandlerSPI3
                0x080006b4        0xc ..\obj\bsp_int.o
                0x080006b4                BSP_IntHandlerSPI3
 .text.BSP_IntHandlerUSART4
                0x080006c0        0xc ..\obj\bsp_int.o
                0x080006c0                BSP_IntHandlerUSART4
 .text.BSP_IntHandlerUSART5
                0x080006cc        0xc ..\obj\bsp_int.o
                0x080006cc                BSP_IntHandlerUSART5
 .text.BSP_IntHandlerTIM6_DAC
                0x080006d8        0xc ..\obj\bsp_int.o
                0x080006d8                BSP_IntHandlerTIM6_DAC
 .text.BSP_IntHandlerTIM7
                0x080006e4        0xc ..\obj\bsp_int.o
                0x080006e4                BSP_IntHandlerTIM7
 .text.BSP_IntHandlerDMA2_CH0
                0x080006f0        0xc ..\obj\bsp_int.o
                0x080006f0                BSP_IntHandlerDMA2_CH0
 .text.BSP_IntHandlerDMA2_CH1
                0x080006fc        0xc ..\obj\bsp_int.o
                0x080006fc                BSP_IntHandlerDMA2_CH1
 .text.BSP_IntHandlerDMA2_CH2
                0x08000708        0xc ..\obj\bsp_int.o
                0x08000708                BSP_IntHandlerDMA2_CH2
 .text.BSP_IntHandlerDMA2_CH3
                0x08000714        0xc ..\obj\bsp_int.o
                0x08000714                BSP_IntHandlerDMA2_CH3
 .text.BSP_IntHandlerDMA2_CH4
                0x08000720        0xc ..\obj\bsp_int.o
                0x08000720                BSP_IntHandlerDMA2_CH4
 .text.BSP_IntHandlerETH
                0x0800072c        0xc ..\obj\bsp_int.o
                0x0800072c                BSP_IntHandlerETH
 .text.BSP_IntHandlerETHWakeup
                0x08000738        0xc ..\obj\bsp_int.o
                0x08000738                BSP_IntHandlerETHWakeup
 .text.BSP_IntHandlerCAN2_TX
                0x08000744        0xc ..\obj\bsp_int.o
                0x08000744                BSP_IntHandlerCAN2_TX
 .text.BSP_IntHandlerCAN2_RX0
                0x08000750        0xc ..\obj\bsp_int.o
                0x08000750                BSP_IntHandlerCAN2_RX0
 .text.BSP_IntHandlerCAN2_RX1
                0x0800075c        0xc ..\obj\bsp_int.o
                0x0800075c                BSP_IntHandlerCAN2_RX1
 .text.BSP_IntHandlerCAN2_SCE
                0x08000768        0xc ..\obj\bsp_int.o
                0x08000768                BSP_IntHandlerCAN2_SCE
 .text.BSP_IntHandlerOTG_FS
                0x08000774        0xc ..\obj\bsp_int.o
                0x08000774                BSP_IntHandlerOTG_FS
 .text.BSP_IntHandlerDMA2_CH5
                0x08000780        0xc ..\obj\bsp_int.o
                0x08000780                BSP_IntHandlerDMA2_CH5
 .text.BSP_IntHandlerDMA2_CH6
                0x0800078c        0xc ..\obj\bsp_int.o
                0x0800078c                BSP_IntHandlerDMA2_CH6
 .text.BSP_IntHandlerDMA2_CH7
                0x08000798        0xc ..\obj\bsp_int.o
                0x08000798                BSP_IntHandlerDMA2_CH7
 .text.BSP_IntHandlerUSART6
                0x080007a4        0xc ..\obj\bsp_int.o
                0x080007a4                BSP_IntHandlerUSART6
 .text.BSP_IntHandlerI2C3_EV
                0x080007b0        0xc ..\obj\bsp_int.o
                0x080007b0                BSP_IntHandlerI2C3_EV
 .text.BSP_IntHandlerI2C3_ER
                0x080007bc        0xc ..\obj\bsp_int.o
                0x080007bc                BSP_IntHandlerI2C3_ER
 .text.BSP_IntHandlerOTG_HS_EP1_OUT
                0x080007c8        0xc ..\obj\bsp_int.o
                0x080007c8                BSP_IntHandlerOTG_HS_EP1_OUT
 .text.BSP_IntHandlerOTG_HS_EP1_IN
                0x080007d4        0xc ..\obj\bsp_int.o
                0x080007d4                BSP_IntHandlerOTG_HS_EP1_IN
 .text.BSP_IntHandlerOTG_HS_WKUP
                0x080007e0        0xc ..\obj\bsp_int.o
                0x080007e0                BSP_IntHandlerOTG_HS_WKUP
 .text.BSP_IntHandlerOTG_HS
                0x080007ec        0xc ..\obj\bsp_int.o
                0x080007ec                BSP_IntHandlerOTG_HS
 .text.BSP_IntHandlerDCMI
                0x080007f8        0xc ..\obj\bsp_int.o
                0x080007f8                BSP_IntHandlerDCMI
 .text.BSP_IntHandlerCRYP
                0x08000804        0xc ..\obj\bsp_int.o
                0x08000804                BSP_IntHandlerCRYP
 .text.BSP_IntHandlerHASH_RNG
                0x08000810        0xc ..\obj\bsp_int.o
                0x08000810                BSP_IntHandlerHASH_RNG
 .text.BSP_IntHandlerFPU
                0x0800081c        0xc ..\obj\bsp_int.o
                0x0800081c                BSP_IntHandlerFPU
 .text.BSP_IntHandler
                0x08000828       0x44 ..\obj\bsp_int.o
 .text.BSP_IntHandlerDummy
                0x0800086c        0xc ..\obj\bsp_int.o
 .text.Mem_Init
                0x08000878       0x90 ..\obj\lib_mem.o
                0x08000878                Mem_Init
 .text.Mem_Clr  0x08000908       0x1c ..\obj\lib_mem.o
                0x08000908                Mem_Clr
 .text.Mem_Set  0x08000924       0xc4 ..\obj\lib_mem.o
                0x08000924                Mem_Set
 .text.OSIdleTaskHook
                0x080009e8       0x18 ..\obj\os_cpu_c.o
                0x080009e8                OSIdleTaskHook
 .text.OSInitHook
                0x08000a00       0x38 ..\obj\os_cpu_c.o
                0x08000a00                OSInitHook
 .text.OSStatTaskHook
                0x08000a38       0x18 ..\obj\os_cpu_c.o
                0x08000a38                OSStatTaskHook
 .text.OSTaskCreateHook
                0x08000a50       0x24 ..\obj\os_cpu_c.o
                0x08000a50                OSTaskCreateHook
 .text.OSTaskDelHook
                0x08000a74       0x24 ..\obj\os_cpu_c.o
                0x08000a74                OSTaskDelHook
 .text.OSTaskReturnHook
                0x08000a98       0x24 ..\obj\os_cpu_c.o
                0x08000a98                OSTaskReturnHook
 .text.OSTaskStkInit
                0x08000abc      0x10c ..\obj\os_cpu_c.o
                0x08000abc                OSTaskStkInit
 .text.OSTaskSwHook
                0x08000bc8       0x70 ..\obj\os_cpu_c.o
                0x08000bc8                OSTaskSwHook
 .text.OSTimeTickHook
                0x08000c38       0x18 ..\obj\os_cpu_c.o
                0x08000c38                OSTimeTickHook
 .text.OS_CPU_SysTickHandler
                0x08000c50       0x34 ..\obj\os_cpu_c.o
                0x08000c50                OS_CPU_SysTickHandler
 .text.OS_CPU_SysTickInit
                0x08000c84       0x54 ..\obj\os_cpu_c.o
                0x08000c84                OS_CPU_SysTickInit
 .text.CPU_Init
                0x08000cd8       0x10 ..\obj\cpu_core.o
                0x08000cd8                CPU_Init
 .text.CPU_NameClr
                0x08000ce8       0x28 ..\obj\cpu_core.o
                0x08000ce8                CPU_NameClr
 .text.CPU_TS_TmrFreqSet
                0x08000d10       0x1c ..\obj\cpu_core.o
                0x08000d10                CPU_TS_TmrFreqSet
 .text.CPU_NameInit
                0x08000d2c        0xc ..\obj\cpu_core.o
 .text.CPU_TS_Init
                0x08000d38       0x14 ..\obj\cpu_core.o
 .text.OS_FlagInit
                0x08000d4c       0x2c ..\obj\os_flag.o
                0x08000d4c                OS_FlagInit
 .text.OS_TickTask
                0x08000d78       0x34 ..\obj\os_tick.o
                0x08000d78                OS_TickTask
 .text.OS_TickTaskInit
                0x08000dac       0xb8 ..\obj\os_tick.o
                0x08000dac                OS_TickTaskInit
 .text.OS_TickListInit
                0x08000e64       0x4c ..\obj\os_tick.o
                0x08000e64                OS_TickListInit
 .text.OS_TickListInsert
                0x08000eb0      0x1f4 ..\obj\os_tick.o
                0x08000eb0                OS_TickListInsert
 .text.OS_TickListRemove
                0x080010a4       0x8c ..\obj\os_tick.o
                0x080010a4                OS_TickListRemove
 .text.OS_TickListResetPeak
                0x08001130       0x40 ..\obj\os_tick.o
                0x08001130                OS_TickListResetPeak
 .text.OS_TickListUpdate
                0x08001170      0x1f4 ..\obj\os_tick.o
                0x08001170                OS_TickListUpdate
 .text.tapisEntreeTask
                0x08001364       0x14 ..\obj\sorting.o
                0x08001364                tapisEntreeTask
 .text.tapisTransfertTask
                0x08001378       0x14 ..\obj\sorting.o
                0x08001378                tapisTransfertTask
 .text.triTask  0x0800138c       0x14 ..\obj\sorting.o
                0x0800138c                triTask
 .text.evacGaucheTask
                0x080013a0       0x14 ..\obj\sorting.o
                0x080013a0                evacGaucheTask
 .text.evacDroiteTask
                0x080013b4       0x14 ..\obj\sorting.o
                0x080013b4                evacDroiteTask
 .text.OS_MsgPoolInit
                0x080013c8       0xd0 ..\obj\os_msg.o
                0x080013c8                OS_MsgPoolInit
 .text.OS_MsgQFreeAll
                0x08001498       0x78 ..\obj\os_msg.o
                0x08001498                OS_MsgQFreeAll
 .text.OS_MsgQInit
                0x08001510       0x34 ..\obj\os_msg.o
                0x08001510                OS_MsgQInit
 .text.main     0x08001544      0x204 ..\obj\main.o
                0x08001544                main
 .text.AppTaskStart
                0x08001748       0x2c ..\obj\main.o
 .text.RCC_DeInit
                0x08001774       0x70 ..\obj\stm32f4xx_rcc.o
                0x08001774                RCC_DeInit
 .text.RCC_HSEConfig
                0x080017e4       0x24 ..\obj\stm32f4xx_rcc.o
                0x080017e4                RCC_HSEConfig
 .text.RCC_WaitForHSEStartUp
                0x08001808       0x50 ..\obj\stm32f4xx_rcc.o
                0x08001808                RCC_WaitForHSEStartUp
 .text.RCC_PLLConfig
                0x08001858       0x3c ..\obj\stm32f4xx_rcc.o
                0x08001858                RCC_PLLConfig
 .text.RCC_PLLCmd
                0x08001894       0x20 ..\obj\stm32f4xx_rcc.o
                0x08001894                RCC_PLLCmd
 .text.RCC_SYSCLKConfig
                0x080018b4       0x38 ..\obj\stm32f4xx_rcc.o
                0x080018b4                RCC_SYSCLKConfig
 .text.RCC_GetSYSCLKSource
                0x080018ec       0x20 ..\obj\stm32f4xx_rcc.o
                0x080018ec                RCC_GetSYSCLKSource
 .text.RCC_HCLKConfig
                0x0800190c       0x38 ..\obj\stm32f4xx_rcc.o
                0x0800190c                RCC_HCLKConfig
 .text.RCC_PCLK1Config
                0x08001944       0x38 ..\obj\stm32f4xx_rcc.o
                0x08001944                RCC_PCLK1Config
 .text.RCC_PCLK2Config
                0x0800197c       0x38 ..\obj\stm32f4xx_rcc.o
                0x0800197c                RCC_PCLK2Config
 .text.RCC_GetClocksFreq
                0x080019b4      0x154 ..\obj\stm32f4xx_rcc.o
                0x080019b4                RCC_GetClocksFreq
 .text.RCC_AHB1PeriphClockCmd
                0x08001b08       0x3c ..\obj\stm32f4xx_rcc.o
                0x08001b08                RCC_AHB1PeriphClockCmd
 .text.RCC_GetFlagStatus
                0x08001b44       0x74 ..\obj\stm32f4xx_rcc.o
                0x08001b44                RCC_GetFlagStatus
 .text.OS_Dbg_Init
                0x08001bb8      0x240 ..\obj\os_dbg.o
                0x08001bb8                OS_Dbg_Init
 .text.OS_SemInit
                0x08001df8       0x2c ..\obj\os_sem.o
                0x08001df8                OS_SemInit
 .text.OS_PrioInit
                0x08001e24       0x30 ..\obj\os_prio.o
                0x08001e24                OS_PrioInit
 .text.OS_PrioGetHighest
                0x08001e54       0x48 ..\obj\os_prio.o
                0x08001e54                OS_PrioGetHighest
 .text.OS_PrioInsert
                0x08001e9c       0x4c ..\obj\os_prio.o
                0x08001e9c                OS_PrioInsert
 .text.OS_PrioRemove
                0x08001ee8       0x50 ..\obj\os_prio.o
                0x08001ee8                OS_PrioRemove
 .text.OSInit   0x08001f38      0x1b0 ..\obj\os_core.o
                0x08001f38                OSInit
 .text.OSIntEnter
                0x080020e8       0x34 ..\obj\os_core.o
                0x080020e8                OSIntEnter
 .text.OSIntExit
                0x0800211c       0xd8 ..\obj\os_core.o
                0x0800211c                OSIntExit
 .text.OSSched  0x080021f4       0xa0 ..\obj\os_core.o
                0x080021f4                OSSched
 .text.OSSchedLock
                0x08002294       0x74 ..\obj\os_core.o
                0x08002294                OSSchedLock
 .text.OSSchedUnlock
                0x08002308       0x90 ..\obj\os_core.o
                0x08002308                OSSchedUnlock
 .text.OSStart  0x08002398       0x80 ..\obj\os_core.o
                0x08002398                OSStart
 .text.OS_IdleTask
                0x08002418       0x3c ..\obj\os_core.o
                0x08002418                OS_IdleTask
 .text.OS_IdleTaskInit
                0x08002454       0x68 ..\obj\os_core.o
                0x08002454                OS_IdleTaskInit
 .text.OS_Pend  0x080024bc       0x80 ..\obj\os_core.o
                0x080024bc                OS_Pend
 .text.OS_PendDataInit
                0x0800253c       0x68 ..\obj\os_core.o
                0x0800253c                OS_PendDataInit
 .text.OS_PendDbgNameAdd
                0x080025a4       0x7c ..\obj\os_core.o
                0x080025a4                OS_PendDbgNameAdd
 .text.OS_PendDbgNameRemove
                0x08002620       0x48 ..\obj\os_core.o
                0x08002620                OS_PendDbgNameRemove
 .text.OS_PendListInsertPrio
                0x08002668       0xe4 ..\obj\os_core.o
                0x08002668                OS_PendListInsertPrio
 .text.OS_PendListRemove
                0x0800274c       0x50 ..\obj\os_core.o
                0x0800274c                OS_PendListRemove
 .text.OS_PendListRemove1
                0x0800279c       0x94 ..\obj\os_core.o
                0x0800279c                OS_PendListRemove1
 .text.OS_Post  0x08002830      0x110 ..\obj\os_core.o
                0x08002830                OS_Post
 .text.OS_Post1
                0x08002940       0x5c ..\obj\os_core.o
                0x08002940                OS_Post1
 .text.OS_RdyListInit
                0x0800299c       0x48 ..\obj\os_core.o
                0x0800299c                OS_RdyListInit
 .text.OS_RdyListInsert
                0x080029e4       0x3c ..\obj\os_core.o
                0x080029e4                OS_RdyListInsert
 .text.OS_RdyListInsertHead
                0x08002a20       0x80 ..\obj\os_core.o
                0x08002a20                OS_RdyListInsertHead
 .text.OS_RdyListInsertTail
                0x08002aa0       0x80 ..\obj\os_core.o
                0x08002aa0                OS_RdyListInsertTail
 .text.OS_RdyListRemove
                0x08002b20       0xac ..\obj\os_core.o
                0x08002b20                OS_RdyListRemove
 .text.OS_TaskBlock
                0x08002bcc       0x4c ..\obj\os_core.o
                0x08002bcc                OS_TaskBlock
 .text.OS_TaskRdy
                0x08002c18       0x28 ..\obj\os_core.o
                0x08002c18                OS_TaskRdy
 .text.OSStatReset
                0x08002c40      0x11c ..\obj\os_stat.o
                0x08002c40                OSStatReset
 .text.OSStatTaskCPUUsageInit
                0x08002d5c       0xfc ..\obj\os_stat.o
                0x08002d5c                OSStatTaskCPUUsageInit
 .text.OS_StatTask
                0x08002e58      0x318 ..\obj\os_stat.o
                0x08002e58                OS_StatTask
 .text.OS_StatTaskInit
                0x08003170       0xd4 ..\obj\os_stat.o
                0x08003170                OS_StatTaskInit
 .text.OS_MemInit
                0x08003244       0x2c ..\obj\os_mem.o
                0x08003244                OS_MemInit
 .text.BSP_PeriphEn
                0x08003270      0x2f0 ..\obj\bsp_periph.o
                0x08003270                BSP_PeriphEn
 .text.GPIO_Init
                0x08003560      0x11c ..\obj\stm32f4xx_gpio.o
                0x08003560                GPIO_Init
 .text.FLASH_SetLatency
                0x0800367c       0x20 ..\obj\stm32f4xx_flash.o
                0x0800367c                FLASH_SetLatency
 .text.FLASH_PrefetchBufferCmd
                0x0800369c       0x38 ..\obj\stm32f4xx_flash.o
                0x0800369c                FLASH_PrefetchBufferCmd
 .text.Math_Init
                0x080036d4        0xc ..\obj\lib_math.o
                0x080036d4                Math_Init
 .text.Math_RandSetSeed
                0x080036e0       0x28 ..\obj\lib_math.o
                0x080036e0                Math_RandSetSeed
 .text.SystemInit
                0x08003708       0x68 ..\obj\system_stm32f4xx.o
                0x08003708                SystemInit
 .text.SetSysClock
                0x08003770      0x128 ..\obj\system_stm32f4xx.o
 .text.OSCfg_Init
                0x08003898        0xc ..\obj\os_cfg_app.o
                0x08003898                OSCfg_Init
 .text.OS_QInit
                0x080038a4       0x2c ..\obj\os_q.o
                0x080038a4                OS_QInit
 .text.OSTaskCreate
                0x080038d0      0x1f8 ..\obj\os_task.o
                0x080038d0                OSTaskCreate
 .text.OSTaskDel
                0x08003ac8      0x13c ..\obj\os_task.o
                0x08003ac8                OSTaskDel
 .text.OSTaskResume
                0x08003c04       0x64 ..\obj\os_task.o
                0x08003c04                OSTaskResume
 .text.OSTaskSemPend
                0x08003c68      0x1e0 ..\obj\os_task.o
                0x08003c68                OSTaskSemPend
 .text.OSTaskSemPost
                0x08003e48       0x48 ..\obj\os_task.o
                0x08003e48                OSTaskSemPost
 .text.OSTaskStkChk
                0x08003e90       0xf0 ..\obj\os_task.o
                0x08003e90                OSTaskStkChk
 .text.OSTaskSuspend
                0x08003f80       0x44 ..\obj\os_task.o
                0x08003f80                OSTaskSuspend
 .text.OS_TaskDbgListAdd
                0x08003fc4       0x4c ..\obj\os_task.o
                0x08003fc4                OS_TaskDbgListAdd
 .text.OS_TaskDbgListRemove
                0x08004010       0x84 ..\obj\os_task.o
                0x08004010                OS_TaskDbgListRemove
 .text.OS_TaskInit
                0x08004094       0x38 ..\obj\os_task.o
                0x08004094                OS_TaskInit
 .text.OS_TaskInitTCB
                0x080040cc      0x198 ..\obj\os_task.o
                0x080040cc                OS_TaskInitTCB
 .text.OS_TaskResume
                0x08004264      0x124 ..\obj\os_task.o
                0x08004264                OS_TaskResume
 .text.OS_TaskReturn
                0x08004388       0x24 ..\obj\os_task.o
                0x08004388                OS_TaskReturn
 .text.OS_TaskSemPost
                0x080043ac      0x128 ..\obj\os_task.o
                0x080043ac                OS_TaskSemPost
 .text.OS_TaskSuspend
                0x080044d4      0x118 ..\obj\os_task.o
                0x080044d4                OS_TaskSuspend
 .text.Reset_Handler
                0x080045ec       0x50 ..\obj\cstartup.o
                0x080045ec                Reset_Handler
 .text.App_NMI_ISR
                0x0800463c        0x4 ..\obj\cstartup.o
 .text.App_Fault_ISR
                0x08004640        0x4 ..\obj\cstartup.o
 .text.App_MemFault_ISR
                0x08004644        0x4 ..\obj\cstartup.o
 .text.App_BusFault_ISR
                0x08004648        0x4 ..\obj\cstartup.o
 .text.App_UsageFault_ISR
                0x0800464c        0x4 ..\obj\cstartup.o
 .text.App_Spurious_ISR
                0x08004650        0x4 ..\obj\cstartup.o
 .text.OS_MutexInit
                0x08004654       0x2c ..\obj\os_mutex.o
                0x08004654                OS_MutexInit
 .text.BSP_Init
                0x08004680       0x7c ..\obj\bsp.o
                0x08004680                BSP_Init
 .text.BSP_CPU_ClkFreq
                0x080046fc       0x18 ..\obj\bsp.o
                0x080046fc                BSP_CPU_ClkFreq
 .text.BSP_Tick_Init
                0x08004714       0x28 ..\obj\bsp.o
                0x08004714                BSP_Tick_Init
 .text.BSP_LED_Init
                0x0800473c       0x68 ..\obj\bsp.o
 .text.CPU_TS_TmrInit
                0x080047a4       0x44 ..\obj\bsp.o
                0x080047a4                CPU_TS_TmrInit
 .text.CPU_TS_TmrRd
                0x080047e8       0x20 ..\obj\bsp.o
                0x080047e8                CPU_TS_TmrRd
 .text.OS_TmrInit
                0x08004808      0x140 ..\obj\os_tmr.o
                0x08004808                OS_TmrInit
 .text.OS_TmrLink
                0x08004948      0x168 ..\obj\os_tmr.o
                0x08004948                OS_TmrLink
 .text.OS_TmrResetPeak
                0x08004ab0       0x40 ..\obj\os_tmr.o
                0x08004ab0                OS_TmrResetPeak
 .text.OS_TmrUnlink
                0x08004af0       0x9c ..\obj\os_tmr.o
                0x08004af0                OS_TmrUnlink
 .text.OS_TmrTask
                0x08004b8c      0x104 ..\obj\os_tmr.o
                0x08004b8c                OS_TmrTask
 .text.__libc_init_array
                0x08004c90       0x48 ..\..\..\..\..\..\..\..\..\Program Files (x86)\GNU Tools ARM Embedded\4.6 2012q2\arm-none-eabi\lib\armv7e-m\fpu\libg.a(lib_a-init.o)
                0x08004c90                __libc_init_array
 .text.startup.register_fini
                0x08004cd8       0x14 ..\..\..\..\..\..\..\..\..\Program Files (x86)\GNU Tools ARM Embedded\4.6 2012q2\arm-none-eabi\lib\armv7e-m\fpu\libg.a(lib_a-__call_atexit.o)
 .text.atexit   0x08004cec        0xc ..\..\..\..\..\..\..\..\..\Program Files (x86)\GNU Tools ARM Embedded\4.6 2012q2\arm-none-eabi\lib\armv7e-m\fpu\libg.a(lib_a-atexit.o)
                0x08004cec                atexit
 .text.__libc_fini_array
                0x08004cf8       0x2c ..\..\..\..\..\..\..\..\..\Program Files (x86)\GNU Tools ARM Embedded\4.6 2012q2\arm-none-eabi\lib\armv7e-m\fpu\libg.a(lib_a-fini.o)
                0x08004cf8                __libc_fini_array
 .text.__register_exitproc
                0x08004d24       0xac ..\..\..\..\..\..\..\..\..\Program Files (x86)\GNU Tools ARM Embedded\4.6 2012q2\arm-none-eabi\lib\armv7e-m\fpu\libg.a(lib_a-__atexit.o)
                0x08004d24                __register_exitproc
 *(.init)
 .init          0x08004dd0        0x4 c:/program files (x86)/gnu tools arm embedded/4.8 2014q2/bin/../lib/gcc/arm-none-eabi/4.8.4/armv7e-m/fpu/crti.o
                0x08004dd0                _init
 .init          0x08004dd4        0x8 c:/program files (x86)/gnu tools arm embedded/4.8 2014q2/bin/../lib/gcc/arm-none-eabi/4.8.4/armv7e-m/fpu/crtn.o
 *(.fini)
 .fini          0x08004ddc        0x4 c:/program files (x86)/gnu tools arm embedded/4.8 2014q2/bin/../lib/gcc/arm-none-eabi/4.8.4/armv7e-m/fpu/crti.o
                0x08004ddc                _fini
 .fini          0x08004de0        0x8 c:/program files (x86)/gnu tools arm embedded/4.8 2014q2/bin/../lib/gcc/arm-none-eabi/4.8.4/armv7e-m/fpu/crtn.o
 *crtbegin.o(.ctors)
 *crtbegin?.o(.ctors)
 *(EXCLUDE_FILE(*crtend.o *crtend?.o) .ctors)
 *(SORT(.ctors.*))
 *(.ctors)
 *crtbegin.o(.dtors)
 *crtbegin?.o(.dtors)
 *(EXCLUDE_FILE(*crtend.o *crtend?.o) .dtors)
 *(SORT(.dtors.*))
 *(.dtors)
 *(.rodata*)
 .rodata        0x08004de8       0x14 ..\obj\os_tick.o
 .rodata        0x08004dfc       0x6c ..\obj\main.o
 .rodata        0x08004e68      0x16c ..\obj\os_dbg.o
                0x08004e68                OSDbg_DbgEn
                0x08004e69                OSDbg_ArgChkEn
                0x08004e6a                OSDbg_AppHooksEn
                0x08004e6c                OSDbg_EndiannessTest
                0x08004e70                OSDbg_CalledFromISRChkEn
                0x08004e71                OSDbg_FlagEn
                0x08004e74                OSDbg_FlagGrp
                0x08004e9c                OSDbg_FlagDelEn
                0x08004e9d                OSDbg_FlagModeClrEn
                0x08004e9e                OSDbg_FlagPendAbortEn
                0x08004ea0                OSDbg_FlagGrpSize
                0x08004ea2                OSDbg_FlagWidth
                0x08004ea4                OSDbg_IntQ
                0x08004ea6                OSDbg_ISRPostDeferredEn
                0x08004ea8                OSDbg_Mem
                0x08004ec8                OSDbg_MemEn
                0x08004eca                OSDbg_MemSize
                0x08004ecc                OSDbg_MsgEn
                0x08004ece                OSDbg_MsgSize
                0x08004ed0                OSDbg_MsgPoolSize
                0x08004ed2                OSDbg_MsgQSize
                0x08004ed4                OSDbg_Mutex
                0x08004f00                OSDbg_MutexEn
                0x08004f01                OSDbg_MutexDelEn
                0x08004f02                OSDbg_MutexPendAbortEn
                0x08004f04                OSDbg_MutexSize
                0x08004f06                OSDbg_ObjTypeChkEn
                0x08004f07                OSDbg_PendMultiEn
                0x08004f08                OSDbg_PendDataSize
                0x08004f0a                OSDbg_PendListSize
                0x08004f0c                OSDbg_PendObjSize
                0x08004f0e                OSDbg_PrioMax
                0x08004f10                OSDbg_PrioTblSize
                0x08004f12                OSDbg_PtrSize
                0x08004f14                OSDbg_Q
                0x08004f44                OSDbg_QEn
                0x08004f45                OSDbg_QDelEn
                0x08004f46                OSDbg_QFlushEn
                0x08004f47                OSDbg_QPendAbortEn
                0x08004f48                OSDbg_QSize
                0x08004f4a                OSDbg_SchedRoundRobinEn
                0x08004f4c                OSDbg_Sem
                0x08004f74                OSDbg_SemEn
                0x08004f75                OSDbg_SemDelEn
                0x08004f76                OSDbg_SemPendAbortEn
                0x08004f77                OSDbg_SemSetEn
                0x08004f78                OSDbg_SemSize
                0x08004f7a                OSDbg_RdyList
                0x08004f7c                OSDbg_RdyListSize
                0x08004f80                OSDbg_StkWidth
                0x08004f81                OSDbg_StatTaskEn
                0x08004f82                OSDbg_StatTaskStkChkEn
                0x08004f83                OSDbg_TaskChangePrioEn
                0x08004f84                OSDbg_TaskDelEn
                0x08004f85                OSDbg_TaskQEn
                0x08004f86                OSDbg_TaskQPendAbortEn
                0x08004f87                OSDbg_TaskProfileEn
                0x08004f88                OSDbg_TaskRegTblSize
                0x08004f8a                OSDbg_TaskSemPendAbortEn
                0x08004f8b                OSDbg_TaskSuspendEn
                0x08004f8c                OSDbg_TCBSize
                0x08004f8e                OSDbg_TickSpokeSize
                0x08004f90                OSDbg_TimeDlyHMSMEn
                0x08004f91                OSDbg_TimeDlyResumeEn
                0x08004f92                OSDbg_TLS_TblSize
                0x08004f94                OSDbg_Tmr
                0x08004fc8                OSDbg_TmrEn
                0x08004fc9                OSDbg_TmrDelEn
                0x08004fca                OSDbg_TmrSize
                0x08004fcc                OSDbg_TmrSpokeSize
                0x08004fce                OSDbg_VersionNbr
                0x08004fd0                OSDbg_DataSize
 .rodata        0x08004fd4       0x2c ..\obj\os_core.o
 .rodata        0x08005000       0x14 ..\obj\os_stat.o
 .rodata        0x08005014       0xa4 ..\obj\os_cfg_app.o
                0x08005014                OSCfg_IdleTaskStkBasePtr
                0x08005018                OSCfg_IdleTaskStkLimit
                0x0800501c                OSCfg_IdleTaskStkSize
                0x08005020                OSCfg_IdleTaskStkSizeRAM
                0x08005024                OSCfg_IntQBasePtr
                0x08005028                OSCfg_IntQSize
                0x0800502c                OSCfg_IntQSizeRAM
                0x08005030                OSCfg_IntQTaskStkBasePtr
                0x08005034                OSCfg_IntQTaskStkLimit
                0x08005038                OSCfg_IntQTaskStkSize
                0x0800503c                OSCfg_IntQTaskStkSizeRAM
                0x08005040                OSCfg_ISRStkBasePtr
                0x08005044                OSCfg_ISRStkSize
                0x08005048                OSCfg_ISRStkSizeRAM
                0x0800504c                OSCfg_MsgPoolSize
                0x08005050                OSCfg_MsgPoolSizeRAM
                0x08005054                OSCfg_MsgPoolBasePtr
                0x08005058                OSCfg_StatTaskPrio
                0x0800505c                OSCfg_StatTaskRate_Hz
                0x08005060                OSCfg_StatTaskStkBasePtr
                0x08005064                OSCfg_StatTaskStkLimit
                0x08005068                OSCfg_StatTaskStkSize
                0x0800506c                OSCfg_StatTaskStkSizeRAM
                0x08005070                OSCfg_StkSizeMin
                0x08005074                OSCfg_TickRate_Hz
                0x08005078                OSCfg_TickTaskPrio
                0x0800507c                OSCfg_TickTaskStkBasePtr
                0x08005080                OSCfg_TickTaskStkLimit
                0x08005084                OSCfg_TickTaskStkSize
                0x08005088                OSCfg_TickTaskStkSizeRAM
                0x0800508c                OSCfg_TickWheelSize
                0x08005090                OSCfg_TickWheelSizeRAM
                0x08005094                OSCfg_TmrTaskPrio
                0x08005098                OSCfg_TmrTaskRate_Hz
                0x0800509c                OSCfg_TmrTaskStkBasePtr
                0x080050a0                OSCfg_TmrTaskStkLimit
                0x080050a4                OSCfg_TmrTaskStkSize
                0x080050a8                OSCfg_TmrTaskStkSizeRAM
                0x080050ac                OSCfg_TmrWheelSize
                0x080050b0                OSCfg_TmrWheelSizeRAM
                0x080050b4                OSCfg_DataSizeRAM
 .rodata        0x080050b8        0xc ..\obj\os_task.o
 .rodata        0x080050c4       0x20 ..\obj\os_tmr.o
 .rodata.str1.4
                0x080050e4        0x4 ..\..\..\..\..\..\..\..\..\Program Files (x86)\GNU Tools ARM Embedded\4.6 2012q2\arm-none-eabi\lib\armv7e-m\fpu\libg.a(lib_a-impure.o)
 .rodata._global_impure_ptr
                0x080050e8        0x4 ..\..\..\..\..\..\..\..\..\Program Files (x86)\GNU Tools ARM Embedded\4.6 2012q2\arm-none-eabi\lib\armv7e-m\fpu\libg.a(lib_a-impure.o)
                0x080050e8                _global_impure_ptr
 *(.eh_fram e*)

.eh_frame       0x080050ec        0x0
 .eh_frame      0x080050ec        0x0 c:/program files (x86)/gnu tools arm embedded/4.8 2014q2/bin/../lib/gcc/arm-none-eabi/4.8.4/armv7e-m/fpu/crtbegin.o

.glue_7         0x080050ec        0x0
 .glue_7        0x00000000        0x0 linker stubs

.glue_7t        0x080050ec        0x0
 .glue_7t       0x00000000        0x0 linker stubs

.vfp11_veneer   0x080050ec        0x0
 .vfp11_veneer  0x00000000        0x0 linker stubs

.v4_bx          0x080050ec        0x0
 .v4_bx         0x00000000        0x0 linker stubs

.iplt           0x080050ec        0x0
 .iplt          0x00000000        0x0 c:/program files (x86)/gnu tools arm embedded/4.8 2014q2/bin/../lib/gcc/arm-none-eabi/4.8.4/armv7e-m/fpu/crtbegin.o

.rel.dyn        0x080050ec        0x0
 .rel.iplt      0x00000000        0x0 c:/program files (x86)/gnu tools arm embedded/4.8 2014q2/bin/../lib/gcc/arm-none-eabi/4.8.4/armv7e-m/fpu/crtbegin.o

.ARM.extab
 *(.ARM.extab* .gnu.linkonce.armextab.*)
                0x080050ec                __exidx_start = .

.ARM.exidx
 *(.ARM.exidx* .gnu.linkonce.armexidx.*)
                0x080050ec                __exidx_end = .
                0x080050ec                __etext = .
                0x080050ec                _sidata = __etext

.data           0x20000000      0x448 load address 0x080050ec
                0x20000000                __data_start__ = .
                0x20000000                _sdata = __data_start__
 *(vtable)
 *(.data*)
 .data          0x20000000       0x10 ..\obj\stm32f4xx_rcc.o
 .data.impure_data
                0x20000010      0x428 ..\..\..\..\..\..\..\..\..\Program Files (x86)\GNU Tools ARM Embedded\4.6 2012q2\arm-none-eabi\lib\armv7e-m\fpu\libg.a(lib_a-impure.o)
                0x20000438                . = ALIGN (0x4)
                0x20000438                PROVIDE (__preinit_array_start, .)
 *(.preinit_array)
                0x20000438                PROVIDE (__preinit_array_end, .)
                0x20000438                . = ALIGN (0x4)
                0x20000438                PROVIDE (__init_array_start, .)
 *(SORT(.init_array.*))
 .init_array.00000
                0x20000438        0x4 ..\..\..\..\..\..\..\..\..\Program Files (x86)\GNU Tools ARM Embedded\4.6 2012q2\arm-none-eabi\lib\armv7e-m\fpu\libg.a(lib_a-__call_atexit.o)
 *(.init_array)
 .init_array    0x2000043c        0x4 c:/program files (x86)/gnu tools arm embedded/4.8 2014q2/bin/../lib/gcc/arm-none-eabi/4.8.4/armv7e-m/fpu/crtbegin.o
                0x20000440                PROVIDE (__init_array_end, .)
                0x20000440                . = ALIGN (0x4)
                0x20000440                PROVIDE (__fini_array_start, .)
 *(SORT(.fini_array.*))
 *(.fini_array)
 .fini_array    0x20000440        0x4 c:/program files (x86)/gnu tools arm embedded/4.8 2014q2/bin/../lib/gcc/arm-none-eabi/4.8.4/armv7e-m/fpu/crtbegin.o
                0x20000444                PROVIDE (__fini_array_end, .)
 *(.jcr*)
 .jcr           0x20000444        0x0 c:/program files (x86)/gnu tools arm embedded/4.8 2014q2/bin/../lib/gcc/arm-none-eabi/4.8.4/armv7e-m/fpu/crtbegin.o
 .jcr           0x20000444        0x4 c:/program files (x86)/gnu tools arm embedded/4.8 2014q2/bin/../lib/gcc/arm-none-eabi/4.8.4/armv7e-m/fpu/crtend.o
                0x20000448                . = ALIGN (0x4)
                0x20000448                __data_end__ = .
                0x20000448                _edata = __data_end__

.igot.plt       0x20000448        0x0 load address 0x08005534
 .igot.plt      0x00000000        0x0 c:/program files (x86)/gnu tools arm embedded/4.8 2014q2/bin/../lib/gcc/arm-none-eabi/4.8.4/armv7e-m/fpu/crtbegin.o

.bss            0x20000448     0x8e0c load address 0x08005534
                0x20000448                . = ALIGN (0x4)
                0x20000448                __bss_start__ = .
                0x20000448                _sbss = __bss_start__
 *(.bss*)
 .bss           0x20000448       0x1c c:/program files (x86)/gnu tools arm embedded/4.8 2014q2/bin/../lib/gcc/arm-none-eabi/4.8.4/armv7e-m/fpu/crtbegin.o
 .bss           0x20000464      0x148 ..\obj\bsp_int.o
 .bss           0x200005ac      0x5c0 ..\obj\main.o
 *(COMMON)
 COMMON         0x20000b6c     0x5c4c ..\obj\lib_mem.o
                0x20000b6c                Mem_PoolHeap
                0x20000bb4                Mem_Heap
                0x200067b4                Mem_PoolTbl
 COMMON         0x200067b8        0x4 ..\obj\os_cpu_c.o
                0x200067b8                OS_CPU_ExceptStkBase
 COMMON         0x200067bc       0x14 ..\obj\cpu_core.o
                0x200067bc                CPU_TS_TmrFreq_Hz
                0x200067c0                CPU_Name
 COMMON         0x200067d0     0x1080 ..\obj\sorting.o
                0x200067d0                rotorTCB
                0x20006890                triTCB
                0x20006950                tapisEntreeSTK
                0x20006b50                evacGaucheTCB
                0x20006c10                tapisTransfertTCB
                0x20006cd0                evacDroiteTCB
                0x20006d90                triSTK
                0x20006f90                rotorSTK
                0x20007190                evacDroiteSTK
                0x20007390                tapisEntreeTCB
                0x20007450                evacGaucheSTK
                0x20007650                tapisTransfertSTK
 COMMON         0x20007850      0x6b0 ..\obj\os_var.o
                0x20007850                OSSchedLockNestingCtr
                0x20007854                OS_AppTaskReturnHookPtr
                0x20007858                OSStatTaskTimeMax
                0x2000785c                OSStatTaskCtr
                0x20007860                OSTaskRegNextAvailID
                0x20007861                OSRunning
                0x20007864                OSRdyList
                0x20007b64                OSPrioHighRdy
                0x20007b65                OSStatTaskRdy
                0x20007b68                OSSemDbgListPtr
                0x20007b6c                OS_AppTaskCreateHookPtr
                0x20007b70                OSPrioCur
                0x20007b74                OSTickTaskTCB
                0x20007c34                OSTmrTickCtr
                0x20007c38                OSTCBCurPtr
                0x20007c3c                OSQQty
                0x20007c3e                OSStatTaskCPUUsageMax
                0x20007c40                OSPrioSaved
                0x20007c44                OSTCBHighRdyPtr
                0x20007c48                OSTaskDbgListPtr
                0x20007c4c                OSTmrTaskTimeMax
                0x20007c50                OS_AppTaskDelHookPtr
                0x20007c54                OS_AppTimeTickHookPtr
                0x20007c58                OSTaskCtxSwCtr
                0x20007c5c                OSStatTaskCPUUsage
                0x20007c5e                OSIntNestingCtr
                0x20007c60                OSTaskQty
                0x20007c64                OSTmrTaskTCB
                0x20007d24                OSMsgPool
                0x20007d30                OSIdleTaskTCB
                0x20007df0                OSQDbgListPtr
                0x20007df4                OSSemQty
                0x20007df8                OSMemDbgListPtr
                0x20007dfc                OS_AppIdleTaskHookPtr
                0x20007e00                OSStatTaskCtrMax
                0x20007e04                OSTickCtr
                0x20007e08                OS_AppTaskSwHookPtr
                0x20007e0c                OSTmrQty
                0x20007e10                OSIdleTaskCtr
                0x20007e14                OSStatTaskCtrRun
                0x20007e18                OS_AppStatTaskHookPtr
                0x20007e1c                OSFlagQty
                0x20007e20                OSFlagDbgListPtr
                0x20007e24                OSStatResetFlag
                0x20007e26                OSMemQty
                0x20007e28                OSMutexQty
                0x20007e2c                OSStatTaskTCB
                0x20007eec                OSTmrDbgListPtr
                0x20007ef0                OSTickTaskTimeMax
                0x20007ef4                OSTmrUpdateCnt
                0x20007ef8                OSMutexDbgListPtr
                0x20007efc                OSTmrUpdateCtr
 COMMON         0x20007f00        0x8 ..\obj\os_prio.o
                0x20007f00                OSPrioTbl
 COMMON         0x20007f08        0x4 ..\obj\lib_math.o
                0x20007f08                Math_RandSeedCur
 COMMON         0x20007f0c     0x1348 ..\obj\os_cfg_app.o
                0x20007f0c                OSCfg_StatTaskStk
                0x2000810c                OSCfg_TickWheel
                0x2000818c                OSCfg_MsgPool
                0x200087cc                OSCfg_TmrTaskStk
                0x200089cc                OSCfg_TmrWheel
                0x20008a54                OSCfg_ISRStk
                0x20008e54                OSCfg_TickTaskStk
                0x20009054                OSCfg_IdleTaskStk
                0x20009254                . = ALIGN (0x4)
                0x20009254                __bss_end__ = .
                0x20009254                _ebss = __bss_end__

.heap           0x20009254        0x0
                0x20009254                __end__ = .
                0x20009254                _end = __end__
                0x20009254                end = __end__
 *(.heap*)
                0x20009254                __HeapLimit = .

.co_stack       0x20009254        0x4 load address 0x0800e340
                0x20009258                . = ALIGN (0x8)
 *fill*         0x20009254        0x4 
 *(.co_stack .co_stack.*)
                0x20020000                __StackTop = (ORIGIN (ram) + 0x20000)
                0x2001fffc                __StackLimit = (__StackTop - SIZEOF (.co_stack))
                0x20020000                PROVIDE (__stack, __StackTop)
                0x00000001                ASSERT ((__StackLimit >= __HeapLimit), region ram  overflowed with stack)
LOAD ..\obj\os_pend_multi.o
LOAD ..\obj\stm32f4xx_syscfg.o
LOAD ..\obj\cpu_a.o
LOAD ..\obj\os_time.o
LOAD ..\obj\os_cpu_a.o
LOAD ..\obj\stm32f4xx_sdio.o
LOAD ..\obj\bsp_int.o
LOAD ..\obj\stm32f4xx_cryp_aes.o
LOAD ..\obj\cpu_c.o
LOAD ..\obj\stm32f4xx_hash.o
LOAD ..\obj\stm32f4xx_dma2d.o
LOAD ..\obj\lib_mem.o
LOAD ..\obj\stm32f4xx_hash_sha1.o
LOAD ..\obj\os_cpu_c.o
LOAD ..\obj\cpu_core.o
LOAD ..\obj\stm32f4xx_usart.o
LOAD ..\obj\stm32f4xx_pwr.o
LOAD ..\obj\os_flag.o
LOAD ..\obj\stm32f4xx_can.o
LOAD ..\obj\os_tick.o
LOAD ..\obj\stm32f4xx_wwdg.o
LOAD ..\obj\stm32f4xx_hash_md5.o
LOAD ..\obj\stm32f4xx_dac.o
LOAD ..\obj\sorting.o
LOAD ..\obj\stm32f4xx_ltdc.o
LOAD ..\obj\os_var.o
LOAD ..\obj\os_msg.o
LOAD ..\obj\lib_str.o
LOAD ..\obj\stm32f4xx_crc.o
LOAD ..\obj\stm32f4xx_iwdg.o
LOAD ..\obj\main.o
LOAD ..\obj\stm32f4xx_rcc.o
LOAD ..\obj\serial_drv_stm32.o
LOAD ..\obj\lib_ascii.o
LOAD ..\obj\stm32f4xx_adc.o
LOAD ..\obj\os_dbg.o
LOAD ..\obj\stm32f4xx_dcmi.o
LOAD ..\obj\serial_line_tty.o
LOAD ..\obj\os_sem.o
LOAD ..\obj\serial_buf.o
LOAD ..\obj\os_prio.o
LOAD ..\obj\bsp_os.o
LOAD ..\obj\os_core.o
LOAD ..\obj\stm32f4xx_cryp_des.o
LOAD ..\obj\os_stat.o
LOAD ..\obj\stm32f4xx_cryp.o
LOAD ..\obj\stm32f4xx_fsmc.o
LOAD ..\obj\serial_os.o
LOAD ..\obj\os_mem.o
LOAD ..\obj\bsp_periph.o
LOAD ..\obj\stm32f4xx_gpio.o
LOAD ..\obj\stm32f4xx_flash.o
LOAD ..\obj\lib_math.o
LOAD ..\obj\stm32f4xx_sai.o
LOAD ..\obj\system_stm32f4xx.o
LOAD ..\obj\syscalls.o
LOAD ..\obj\stm32f4xx_dma.o
LOAD ..\obj\serial_line_probe.o
LOAD ..\obj\os_cfg_app.o
LOAD ..\obj\os_q.o
LOAD ..\obj\os_task.o
LOAD ..\obj\os_app_hooks.o
LOAD ..\obj\cstartup.o
LOAD ..\obj\os_mutex.o
LOAD ..\obj\stm32f4xx_spi.o
LOAD ..\obj\bsp.o
LOAD ..\obj\stm32f4xx_i2c.o
LOAD ..\obj\serial_bsp_stm3240x.o
LOAD ..\obj\stm32f4xx_rng.o
LOAD ..\obj\stm32f4xx_exti.o
LOAD ..\obj\os_tmr.o
LOAD ..\obj\misc.o
LOAD ..\obj\serial.o
LOAD ..\obj\os_int.o
LOAD ..\obj\serial_line_dflt.o
LOAD ..\obj\stm32f4xx_rtc.o
LOAD ..\obj\lib_mem_a.o
LOAD ..\obj\stm32f4xx_cryp_tdes.o
LOAD ..\obj\stm32f4xx_tim.o
LOAD ..\obj\stm32f4xx_dbgmcu.o
LOAD ..\..\..\..\..\..\..\..\..\Program Files (x86)\GNU Tools ARM Embedded\4.6 2012q2\arm-none-eabi\lib\armv7e-m\fpu\libm.a
START GROUP
LOAD c:/program files (x86)/gnu tools arm embedded/4.8 2014q2/bin/../lib/gcc/arm-none-eabi/4.8.4/armv7e-m/fpu\libgcc.a
LOAD ..\..\..\..\..\..\..\..\..\Program Files (x86)\GNU Tools ARM Embedded\4.6 2012q2\arm-none-eabi\lib\armv7e-m\fpu\libg.a
LOAD ..\..\..\..\..\..\..\..\..\Program Files (x86)\GNU Tools ARM Embedded\4.6 2012q2\arm-none-eabi\lib\armv7e-m\fpu\libc.a
END GROUP
LOAD c:/program files (x86)/gnu tools arm embedded/4.8 2014q2/bin/../lib/gcc/arm-none-eabi/4.8.4/armv7e-m/fpu/crtend.o
LOAD c:/program files (x86)/gnu tools arm embedded/4.8 2014q2/bin/../lib/gcc/arm-none-eabi/4.8.4/armv7e-m/fpu/crtn.o
OUTPUT(Project.elf elf32-littlearm)

.ARM.attributes
                0x00000000       0x32
 .ARM.attributes
                0x00000000       0x22 c:/program files (x86)/gnu tools arm embedded/4.8 2014q2/bin/../lib/gcc/arm-none-eabi/4.8.4/armv7e-m/fpu/crti.o
 .ARM.attributes
                0x00000022       0x34 c:/program files (x86)/gnu tools arm embedded/4.8 2014q2/bin/../lib/gcc/arm-none-eabi/4.8.4/armv7e-m/fpu/crtbegin.o
 .ARM.attributes
                0x00000056       0x25 ..\obj\cpu_a.o
 .ARM.attributes
                0x0000007b       0x39 ..\obj\os_time.o
 .ARM.attributes
                0x000000b4       0x25 ..\obj\os_cpu_a.o
 .ARM.attributes
                0x000000d9       0x39 ..\obj\bsp_int.o
 .ARM.attributes
                0x00000112       0x39 ..\obj\lib_mem.o
 .ARM.attributes
                0x0000014b       0x39 ..\obj\os_cpu_c.o
 .ARM.attributes
                0x00000184       0x39 ..\obj\cpu_core.o
 .ARM.attributes
                0x000001bd       0x39 ..\obj\os_flag.o
 .ARM.attributes
                0x000001f6       0x39 ..\obj\os_tick.o
 .ARM.attributes
                0x0000022f       0x39 ..\obj\sorting.o
 .ARM.attributes
                0x00000268       0x39 ..\obj\os_var.o
 .ARM.attributes
                0x000002a1       0x39 ..\obj\os_msg.o
 .ARM.attributes
                0x000002da       0x39 ..\obj\main.o
 .ARM.attributes
                0x00000313       0x39 ..\obj\stm32f4xx_rcc.o
 .ARM.attributes
                0x0000034c       0x39 ..\obj\os_dbg.o
 .ARM.attributes
                0x00000385       0x39 ..\obj\os_sem.o
 .ARM.attributes
                0x000003be       0x39 ..\obj\os_prio.o
 .ARM.attributes
                0x000003f7       0x39 ..\obj\os_core.o
 .ARM.attributes
                0x00000430       0x39 ..\obj\os_stat.o
 .ARM.attributes
                0x00000469       0x39 ..\obj\os_mem.o
 .ARM.attributes
                0x000004a2       0x39 ..\obj\bsp_periph.o
 .ARM.attributes
                0x000004db       0x39 ..\obj\stm32f4xx_gpio.o
 .ARM.attributes
                0x00000514       0x39 ..\obj\stm32f4xx_flash.o
 .ARM.attributes
                0x0000054d       0x39 ..\obj\lib_math.o
 .ARM.attributes
                0x00000586       0x39 ..\obj\system_stm32f4xx.o
 .ARM.attributes
                0x000005bf       0x39 ..\obj\os_cfg_app.o
 .ARM.attributes
                0x000005f8       0x39 ..\obj\os_q.o
 .ARM.attributes
                0x00000631       0x39 ..\obj\os_task.o
 .ARM.attributes
                0x0000066a       0x21 ..\obj\cstartup.o
 .ARM.attributes
                0x0000068b       0x39 ..\obj\os_mutex.o
 .ARM.attributes
                0x000006c4       0x39 ..\obj\bsp.o
 .ARM.attributes
                0x000006fd       0x39 ..\obj\os_tmr.o
 .ARM.attributes
                0x00000736       0x36 ..\..\..\..\..\..\..\..\..\Program Files (x86)\GNU Tools ARM Embedded\4.6 2012q2\arm-none-eabi\lib\armv7e-m\fpu\libg.a(lib_a-impure.o)
 .ARM.attributes
                0x0000076c       0x36 ..\..\..\..\..\..\..\..\..\Program Files (x86)\GNU Tools ARM Embedded\4.6 2012q2\arm-none-eabi\lib\armv7e-m\fpu\libg.a(lib_a-init.o)
 .ARM.attributes
                0x000007a2       0x36 ..\..\..\..\..\..\..\..\..\Program Files (x86)\GNU Tools ARM Embedded\4.6 2012q2\arm-none-eabi\lib\armv7e-m\fpu\libg.a(lib_a-__call_atexit.o)
 .ARM.attributes
                0x000007d8       0x36 ..\..\..\..\..\..\..\..\..\Program Files (x86)\GNU Tools ARM Embedded\4.6 2012q2\arm-none-eabi\lib\armv7e-m\fpu\libg.a(lib_a-atexit.o)
 .ARM.attributes
                0x0000080e       0x36 ..\..\..\..\..\..\..\..\..\Program Files (x86)\GNU Tools ARM Embedded\4.6 2012q2\arm-none-eabi\lib\armv7e-m\fpu\libg.a(lib_a-fini.o)
 .ARM.attributes
                0x00000844       0x36 ..\..\..\..\..\..\..\..\..\Program Files (x86)\GNU Tools ARM Embedded\4.6 2012q2\arm-none-eabi\lib\armv7e-m\fpu\libg.a(lib_a-__atexit.o)
 .ARM.attributes
                0x0000087a       0x34 c:/program files (x86)/gnu tools arm embedded/4.8 2014q2/bin/../lib/gcc/arm-none-eabi/4.8.4/armv7e-m/fpu/crtend.o
 .ARM.attributes
                0x000008ae       0x22 c:/program files (x86)/gnu tools arm embedded/4.8 2014q2/bin/../lib/gcc/arm-none-eabi/4.8.4/armv7e-m/fpu/crtn.o

.comment        0x00000000       0x70
 .comment       0x00000000       0x70 ..\obj\os_time.o
                                 0x71 (size before relaxing)
 .comment       0x00000000       0x71 ..\obj\bsp_int.o
 .comment       0x00000000       0x71 ..\obj\lib_mem.o
 .comment       0x00000000       0x71 ..\obj\os_cpu_c.o
 .comment       0x00000000       0x71 ..\obj\cpu_core.o
 .comment       0x00000000       0x71 ..\obj\os_flag.o
 .comment       0x00000000       0x71 ..\obj\os_tick.o
 .comment       0x00000000       0x71 ..\obj\sorting.o
 .comment       0x00000000       0x71 ..\obj\os_var.o
 .comment       0x00000000       0x71 ..\obj\os_msg.o
 .comment       0x00000000       0x71 ..\obj\main.o
 .comment       0x00000000       0x71 ..\obj\stm32f4xx_rcc.o
 .comment       0x00000000       0x71 ..\obj\os_dbg.o
 .comment       0x00000000       0x71 ..\obj\os_sem.o
 .comment       0x00000000       0x71 ..\obj\os_prio.o
 .comment       0x00000000       0x71 ..\obj\os_core.o
 .comment       0x00000000       0x71 ..\obj\os_stat.o
 .comment       0x00000000       0x71 ..\obj\os_mem.o
 .comment       0x00000000       0x71 ..\obj\bsp_periph.o
 .comment       0x00000000       0x71 ..\obj\stm32f4xx_gpio.o
 .comment       0x00000000       0x71 ..\obj\stm32f4xx_flash.o
 .comment       0x00000000       0x71 ..\obj\lib_math.o
 .comment       0x00000000       0x71 ..\obj\system_stm32f4xx.o
 .comment       0x00000000       0x71 ..\obj\os_cfg_app.o
 .comment       0x00000000       0x71 ..\obj\os_q.o
 .comment       0x00000000       0x71 ..\obj\os_task.o
 .comment       0x00000000       0x71 ..\obj\os_mutex.o
 .comment       0x00000000       0x71 ..\obj\bsp.o
 .comment       0x00000000       0x71 ..\obj\os_tmr.o

.debug_line     0x00000000     0x6191
 .debug_line    0x00000000       0x9f ..\obj\cpu_a.o
 .debug_line    0x0000009f      0x237 ..\obj\os_time.o
 .debug_line    0x000002d6       0xd5 ..\obj\os_cpu_a.o
 .debug_line    0x000003ab      0x802 ..\obj\bsp_int.o
 .debug_line    0x00000bad      0x5fc ..\obj\lib_mem.o
 .debug_line    0x000011a9      0x26d ..\obj\os_cpu_c.o
 .debug_line    0x00001416      0x2a8 ..\obj\cpu_core.o
 .debug_line    0x000016be      0x3a6 ..\obj\os_flag.o
 .debug_line    0x00001a64      0x28b ..\obj\os_tick.o
 .debug_line    0x00001cef      0x2cd ..\obj\sorting.o
 .debug_line    0x00001fbc      0x10b ..\obj\os_var.o
 .debug_line    0x000020c7      0x1f7 ..\obj\os_msg.o
 .debug_line    0x000022be      0x398 ..\obj\main.o
 .debug_line    0x00002656      0x68e ..\obj\stm32f4xx_rcc.o
 .debug_line    0x00002ce4      0x16f ..\obj\os_dbg.o
 .debug_line    0x00002e53      0x301 ..\obj\os_sem.o
 .debug_line    0x00003154      0x133 ..\obj\os_prio.o
 .debug_line    0x00003287      0x5ea ..\obj\os_core.o
 .debug_line    0x00003871      0x23d ..\obj\os_stat.o
 .debug_line    0x00003aae      0x196 ..\obj\os_mem.o
 .debug_line    0x00003c44      0x244 ..\obj\bsp_periph.o
 .debug_line    0x00003e88      0x392 ..\obj\stm32f4xx_gpio.o
 .debug_line    0x0000421a      0x5c6 ..\obj\stm32f4xx_flash.o
 .debug_line    0x000047e0      0x116 ..\obj\lib_math.o
 .debug_line    0x000048f6      0x284 ..\obj\system_stm32f4xx.o
 .debug_line    0x00004b7a      0x12e ..\obj\os_cfg_app.o
 .debug_line    0x00004ca8      0x2fd ..\obj\os_q.o
 .debug_line    0x00004fa5      0x5f1 ..\obj\os_task.o
 .debug_line    0x00005596      0x101 ..\obj\cstartup.o
 .debug_line    0x00005697      0x2f6 ..\obj\os_mutex.o
 .debug_line    0x0000598d      0x44f ..\obj\bsp.o
 .debug_line    0x00005ddc      0x3b5 ..\obj\os_tmr.o

.debug_info     0x00000000    0x16344
 .debug_info    0x00000000       0xb8 ..\obj\cpu_a.o
 .debug_info    0x000000b8      0xe6d ..\obj\os_time.o
 .debug_info    0x00000f25       0xc8 ..\obj\os_cpu_a.o
 .debug_info    0x00000fed      0x853 ..\obj\bsp_int.o
 .debug_info    0x00001840      0xe4d ..\obj\lib_mem.o
 .debug_info    0x0000268d      0x94b ..\obj\os_cpu_c.o
 .debug_info    0x00002fd8      0x522 ..\obj\cpu_core.o
 .debug_info    0x000034fa     0x120b ..\obj\os_flag.o
 .debug_info    0x00004705      0xedc ..\obj\os_tick.o
 .debug_info    0x000055e1      0xdfd ..\obj\sorting.o
 .debug_info    0x000063de      0xf0f ..\obj\os_var.o
 .debug_info    0x000072ed      0x8f4 ..\obj\os_msg.o
 .debug_info    0x00007be1     0x1008 ..\obj\main.o
 .debug_info    0x00008be9      0xe02 ..\obj\stm32f4xx_rcc.o
 .debug_info    0x000099eb     0x1351 ..\obj\os_dbg.o
 .debug_info    0x0000ad3c     0x110a ..\obj\os_sem.o
 .debug_info    0x0000be46      0x1bb ..\obj\os_prio.o
 .debug_info    0x0000c001     0x1711 ..\obj\os_core.o
 .debug_info    0x0000d712      0xfae ..\obj\os_stat.o
 .debug_info    0x0000e6c0      0x896 ..\obj\os_mem.o
 .debug_info    0x0000ef56      0x163 ..\obj\bsp_periph.o
 .debug_info    0x0000f0b9      0x605 ..\obj\stm32f4xx_gpio.o
 .debug_info    0x0000f6be      0x92e ..\obj\stm32f4xx_flash.o
 .debug_info    0x0000ffec      0x162 ..\obj\lib_math.o
 .debug_info    0x0001014e      0x5b9 ..\obj\system_stm32f4xx.o
 .debug_info    0x00010707      0xbd1 ..\obj\os_cfg_app.o
 .debug_info    0x000112d8     0x112d ..\obj\os_q.o
 .debug_info    0x00012405     0x161d ..\obj\os_task.o
 .debug_info    0x00013a22       0xa9 ..\obj\cstartup.o
 .debug_info    0x00013acb     0x1025 ..\obj\os_mutex.o
 .debug_info    0x00014af0      0x51e ..\obj\bsp.o
 .debug_info    0x0001500e     0x1336 ..\obj\os_tmr.o

.debug_abbrev   0x00000000     0x2a07
 .debug_abbrev  0x00000000       0x14 ..\obj\cpu_a.o
 .debug_abbrev  0x00000014      0x17b ..\obj\os_time.o
 .debug_abbrev  0x0000018f       0x14 ..\obj\os_cpu_a.o
 .debug_abbrev  0x000001a3      0x184 ..\obj\bsp_int.o
 .debug_abbrev  0x00000327      0x1bc ..\obj\lib_mem.o
 .debug_abbrev  0x000004e3      0x1e4 ..\obj\os_cpu_c.o
 .debug_abbrev  0x000006c7      0x1a2 ..\obj\cpu_core.o
 .debug_abbrev  0x00000869      0x1c8 ..\obj\os_flag.o
 .debug_abbrev  0x00000a31      0x1a7 ..\obj\os_tick.o
 .debug_abbrev  0x00000bd8      0x11a ..\obj\sorting.o
 .debug_abbrev  0x00000cf2       0xb5 ..\obj\os_var.o
 .debug_abbrev  0x00000da7      0x14a ..\obj\os_msg.o
 .debug_abbrev  0x00000ef1      0x1a9 ..\obj\main.o
 .debug_abbrev  0x0000109a      0x1ba ..\obj\stm32f4xx_rcc.o
 .debug_abbrev  0x00001254       0xfa ..\obj\os_dbg.o
 .debug_abbrev  0x0000134e      0x1c8 ..\obj\os_sem.o
 .debug_abbrev  0x00001516       0xc4 ..\obj\os_prio.o
 .debug_abbrev  0x000015da      0x1b4 ..\obj\os_core.o
 .debug_abbrev  0x0000178e      0x15f ..\obj\os_stat.o
 .debug_abbrev  0x000018ed      0x125 ..\obj\os_mem.o
 .debug_abbrev  0x00001a12       0xcc ..\obj\bsp_periph.o
 .debug_abbrev  0x00001ade      0x1a3 ..\obj\stm32f4xx_gpio.o
 .debug_abbrev  0x00001c81      0x196 ..\obj\stm32f4xx_flash.o
 .debug_abbrev  0x00001e17       0xf9 ..\obj\lib_math.o
 .debug_abbrev  0x00001f10      0x136 ..\obj\system_stm32f4xx.o
 .debug_abbrev  0x00002046       0xda ..\obj\os_cfg_app.o
 .debug_abbrev  0x00002120      0x1c8 ..\obj\os_q.o
 .debug_abbrev  0x000022e8      0x195 ..\obj\os_task.o
 .debug_abbrev  0x0000247d       0x12 ..\obj\cstartup.o
 .debug_abbrev  0x0000248f      0x1c8 ..\obj\os_mutex.o
 .debug_abbrev  0x00002657      0x1dc ..\obj\bsp.o
 .debug_abbrev  0x00002833      0x1d4 ..\obj\os_tmr.o

.debug_aranges  0x00000000     0x10a0
 .debug_aranges
                0x00000000       0x20 ..\obj\cpu_a.o
 .debug_aranges
                0x00000020       0x48 ..\obj\os_time.o
 .debug_aranges
                0x00000068       0x20 ..\obj\os_cpu_a.o
 .debug_aranges
                0x00000088      0x2f0 ..\obj\bsp_int.o
 .debug_aranges
                0x00000378       0xa8 ..\obj\lib_mem.o
 .debug_aranges
                0x00000420       0x70 ..\obj\os_cpu_c.o
 .debug_aranges
                0x00000490       0xb0 ..\obj\cpu_core.o
 .debug_aranges
                0x00000540       0x80 ..\obj\os_flag.o
 .debug_aranges
                0x000005c0       0x50 ..\obj\os_tick.o
 .debug_aranges
                0x00000610       0x48 ..\obj\sorting.o
 .debug_aranges
                0x00000658       0x18 ..\obj\os_var.o
 .debug_aranges
                0x00000670       0x40 ..\obj\os_msg.o
 .debug_aranges
                0x000006b0       0x38 ..\obj\main.o
 .debug_aranges
                0x000006e8      0x1b8 ..\obj\stm32f4xx_rcc.o
 .debug_aranges
                0x000008a0       0x20 ..\obj\os_dbg.o
 .debug_aranges
                0x000008c0       0x70 ..\obj\os_sem.o
 .debug_aranges
                0x00000930       0x38 ..\obj\os_prio.o
 .debug_aranges
                0x00000968      0x128 ..\obj\os_core.o
 .debug_aranges
                0x00000a90       0x38 ..\obj\os_stat.o
 .debug_aranges
                0x00000ac8       0x40 ..\obj\os_mem.o
 .debug_aranges
                0x00000b08       0x30 ..\obj\bsp_periph.o
 .debug_aranges
                0x00000b38       0x88 ..\obj\stm32f4xx_gpio.o
 .debug_aranges
                0x00000bc0      0x158 ..\obj\stm32f4xx_flash.o
 .debug_aranges
                0x00000d18       0x38 ..\obj\lib_math.o
 .debug_aranges
                0x00000d50       0x30 ..\obj\system_stm32f4xx.o
 .debug_aranges
                0x00000d80       0x20 ..\obj\os_cfg_app.o
 .debug_aranges
                0x00000da0       0x70 ..\obj\os_q.o
 .debug_aranges
                0x00000e10       0xe8 ..\obj\os_task.o
 .debug_aranges
                0x00000ef8       0x58 ..\obj\cstartup.o
 .debug_aranges
                0x00000f50       0x60 ..\obj\os_mutex.o
 .debug_aranges
                0x00000fb0       0x68 ..\obj\bsp.o
 .debug_aranges
                0x00001018       0x88 ..\obj\os_tmr.o

.debug_ranges   0x00000000      0xe80
 .debug_ranges  0x00000000       0x38 ..\obj\os_time.o
 .debug_ranges  0x00000038      0x2e0 ..\obj\bsp_int.o
 .debug_ranges  0x00000318       0x98 ..\obj\lib_mem.o
 .debug_ranges  0x000003b0       0x60 ..\obj\os_cpu_c.o
 .debug_ranges  0x00000410       0xa0 ..\obj\cpu_core.o
 .debug_ranges  0x000004b0       0x70 ..\obj\os_flag.o
 .debug_ranges  0x00000520       0x40 ..\obj\os_tick.o
 .debug_ranges  0x00000560       0x38 ..\obj\sorting.o
 .debug_ranges  0x00000598       0x30 ..\obj\os_msg.o
 .debug_ranges  0x000005c8       0x28 ..\obj\main.o
 .debug_ranges  0x000005f0      0x1a8 ..\obj\stm32f4xx_rcc.o
 .debug_ranges  0x00000798       0x10 ..\obj\os_dbg.o
 .debug_ranges  0x000007a8       0x60 ..\obj\os_sem.o
 .debug_ranges  0x00000808       0x28 ..\obj\os_prio.o
 .debug_ranges  0x00000830      0x118 ..\obj\os_core.o
 .debug_ranges  0x00000948       0x28 ..\obj\os_stat.o
 .debug_ranges  0x00000970       0x30 ..\obj\os_mem.o
 .debug_ranges  0x000009a0       0x20 ..\obj\bsp_periph.o
 .debug_ranges  0x000009c0       0x78 ..\obj\stm32f4xx_gpio.o
 .debug_ranges  0x00000a38      0x148 ..\obj\stm32f4xx_flash.o
 .debug_ranges  0x00000b80       0x28 ..\obj\lib_math.o
 .debug_ranges  0x00000ba8       0x20 ..\obj\system_stm32f4xx.o
 .debug_ranges  0x00000bc8       0x10 ..\obj\os_cfg_app.o
 .debug_ranges  0x00000bd8       0x60 ..\obj\os_q.o
 .debug_ranges  0x00000c38       0xd8 ..\obj\os_task.o
 .debug_ranges  0x00000d10       0x50 ..\obj\cstartup.o
 .debug_ranges  0x00000d60       0x50 ..\obj\os_mutex.o
 .debug_ranges  0x00000db0       0x58 ..\obj\bsp.o
 .debug_ranges  0x00000e08       0x78 ..\obj\os_tmr.o

.debug_str      0x00000000     0x591e
 .debug_str     0x00000000     0x12c6 ..\obj\os_time.o
                               0x1365 (size before relaxing)
 .debug_str     0x000012c6      0x87a ..\obj\bsp_int.o
                                0x9ed (size before relaxing)
 .debug_str     0x00001b40      0x839 ..\obj\lib_mem.o
                                0x9fd (size before relaxing)
 .debug_str     0x00002379      0x24f ..\obj\os_cpu_c.o
                                0x7f8 (size before relaxing)
 .debug_str     0x000025c8      0x254 ..\obj\cpu_core.o
                                0x3e4 (size before relaxing)
 .debug_str     0x0000281c      0x1bf ..\obj\os_flag.o
                               0x13ed (size before relaxing)
 .debug_str     0x000029db      0x1ce ..\obj\os_tick.o
                               0x13e2 (size before relaxing)
 .debug_str     0x00002ba9      0x125 ..\obj\sorting.o
                               0x1376 (size before relaxing)
 .debug_str     0x00002cce      0x34b ..\obj\os_var.o
                                0xa7e (size before relaxing)
 .debug_str     0x00003019       0xed ..\obj\os_msg.o
                                0xf7b (size before relaxing)
 .debug_str     0x00003106      0x275 ..\obj\main.o
                               0x157f (size before relaxing)
 .debug_str     0x0000337b      0x7f2 ..\obj\stm32f4xx_rcc.o
                                0x9c9 (size before relaxing)
 .debug_str     0x00003b6d      0x523 ..\obj\os_dbg.o
                                0xf61 (size before relaxing)
 .debug_str     0x00004090       0xeb ..\obj\os_sem.o
                               0x1374 (size before relaxing)
 .debug_str     0x0000417b       0x92 ..\obj\os_prio.o
                                0x1f4 (size before relaxing)
 .debug_str     0x0000420d      0x2e9 ..\obj\os_core.o
                               0x171d (size before relaxing)
 .debug_str     0x000044f6      0x146 ..\obj\os_stat.o
                               0x14b1 (size before relaxing)
 .debug_str     0x0000463c       0xa7 ..\obj\os_mem.o
                                0xf58 (size before relaxing)
 .debug_str     0x000046e3       0x8a ..\obj\bsp_periph.o
                                0x257 (size before relaxing)
 .debug_str     0x0000476d      0x1ab ..\obj\stm32f4xx_gpio.o
                                0x4d7 (size before relaxing)
 .debug_str     0x00004918      0x4e8 ..\obj\stm32f4xx_flash.o
                                0x6d3 (size before relaxing)
 .debug_str     0x00004e00       0xa0 ..\obj\lib_math.o
                                0x1dc (size before relaxing)
 .debug_str     0x00004ea0      0x11d ..\obj\system_stm32f4xx.o
                                0x411 (size before relaxing)
 .debug_str     0x00004fbd      0x2cf ..\obj\os_cfg_app.o
                                0xa41 (size before relaxing)
 .debug_str     0x0000528c       0xe5 ..\obj\os_q.o
                               0x1381 (size before relaxing)
 .debug_str     0x00005371      0x218 ..\obj\os_task.o
                               0x153c (size before relaxing)
 .debug_str     0x00005589       0xfd ..\obj\os_mutex.o
                               0x13b5 (size before relaxing)
 .debug_str     0x00005686      0x11d ..\obj\bsp.o
                                0x54f (size before relaxing)
 .debug_str     0x000057a3      0x17b ..\obj\os_tmr.o
                               0x1534 (size before relaxing)

.debug_frame    0x00000000     0x33a0
 .debug_frame   0x00000000       0xd0 ..\obj\os_time.o
 .debug_frame   0x000000d0      0xa18 ..\obj\bsp_int.o
 .debug_frame   0x00000ae8      0x238 ..\obj\lib_mem.o
 .debug_frame   0x00000d20      0x154 ..\obj\os_cpu_c.o
 .debug_frame   0x00000e74      0x258 ..\obj\cpu_core.o
 .debug_frame   0x000010cc      0x1a4 ..\obj\os_flag.o
 .debug_frame   0x00001270       0xe0 ..\obj\os_tick.o
 .debug_frame   0x00001350       0xb8 ..\obj\sorting.o
 .debug_frame   0x00001408       0x9c ..\obj\os_msg.o
 .debug_frame   0x000014a4       0x8c ..\obj\main.o
 .debug_frame   0x00001530      0x5b8 ..\obj\stm32f4xx_rcc.o
 .debug_frame   0x00001ae8       0x2c ..\obj\os_dbg.o
 .debug_frame   0x00001b14      0x164 ..\obj\os_sem.o
 .debug_frame   0x00001c78       0x84 ..\obj\os_prio.o
 .debug_frame   0x00001cfc      0x40c ..\obj\os_core.o
 .debug_frame   0x00002108       0x90 ..\obj\os_stat.o
 .debug_frame   0x00002198       0xa8 ..\obj\os_mem.o
 .debug_frame   0x00002240       0x68 ..\obj\bsp_periph.o
 .debug_frame   0x000022a8      0x19c ..\obj\stm32f4xx_gpio.o
 .debug_frame   0x00002444      0x480 ..\obj\stm32f4xx_flash.o
 .debug_frame   0x000028c4       0x88 ..\obj\lib_math.o
 .debug_frame   0x0000294c       0x64 ..\obj\system_stm32f4xx.o
 .debug_frame   0x000029b0       0x28 ..\obj\os_cfg_app.o
 .debug_frame   0x000029d8      0x164 ..\obj\os_q.o
 .debug_frame   0x00002b3c      0x344 ..\obj\os_task.o
 .debug_frame   0x00002e80      0x124 ..\obj\os_mutex.o
 .debug_frame   0x00002fa4      0x150 ..\obj\bsp.o
 .debug_frame   0x000030f4      0x1b8 ..\obj\os_tmr.o
 .debug_frame   0x000032ac       0x2c ..\..\..\..\..\..\..\..\..\Program Files (x86)\GNU Tools ARM Embedded\4.6 2012q2\arm-none-eabi\lib\armv7e-m\fpu\libg.a(lib_a-init.o)
 .debug_frame   0x000032d8       0x48 ..\..\..\..\..\..\..\..\..\Program Files (x86)\GNU Tools ARM Embedded\4.6 2012q2\arm-none-eabi\lib\armv7e-m\fpu\libg.a(lib_a-__call_atexit.o)
 .debug_frame   0x00003320       0x20 ..\..\..\..\..\..\..\..\..\Program Files (x86)\GNU Tools ARM Embedded\4.6 2012q2\arm-none-eabi\lib\armv7e-m\fpu\libg.a(lib_a-atexit.o)
 .debug_frame   0x00003340       0x2c ..\..\..\..\..\..\..\..\..\Program Files (x86)\GNU Tools ARM Embedded\4.6 2012q2\arm-none-eabi\lib\armv7e-m\fpu\libg.a(lib_a-fini.o)
 .debug_frame   0x0000336c       0x34 ..\..\..\..\..\..\..\..\..\Program Files (x86)\GNU Tools ARM Embedded\4.6 2012q2\arm-none-eabi\lib\armv7e-m\fpu\libg.a(lib_a-__atexit.o)
